ccopy_reg
_reconstructor
p1
(cmatplotlib.font_manager
FontManager
p2
c__builtin__
object
p3
NtRp4
(dp5
S'ttflist'
p6
(lp7
g1
(cmatplotlib.font_manager
FontEntry
p8
g3
NtRp9
(dp10
S'style'
p11
Vnormal
p12
sS'name'
p13
S'Courier New'
p14
sS'weight'
p15
I400
sS'stretch'
p16
g12
sS'variant'
p17
g12
sS'fname'
p18
VC:\u005cWindows\u005cFonts\u005ccour.ttf
p19
sS'size'
p20
Vscalable
p21
sbag1
(g8
g3
NtRp22
(dp23
g11
g12
sg13
S'Footlight MT Light'
p24
sg15
I200
sg16
g12
sg17
g12
sg18
Vc:\u005cwindows\u005cfonts\u005cftltlt.ttf
p25
sg20
g21
sbag1
(g8
g3
NtRp26
(dp27
g11
Vitalic
p28
sg13
S'Browallia New'
p29
sg15
I400
sg16
g12
sg17
g12
sg18
Vc:\u005cwindows\u005cfonts\u005cbrowai.ttf
p30
sg20
g21
sbag1
(g8
g3
NtRp31
(dp32
g11
g12
sg13
S'Stencil'
p33
sg15
I400
sg16
g12
sg17
g12
sg18
VC:\u005cWindows\u005cFonts\u005cSTENCIL.TTF
p34
sg20
g21
sbag1
(g8
g3
NtRp35
(dp36
g11
g12
sg13
S'Cambria'
p37
sg15
I700
sg16
g12
sg17
g12
sg18
Vc:\u005cwindows\u005cfonts\u005ccambriab.ttf
p38
sg20
g21
sbag1
(g8
g3
NtRp39
(dp40
g11
g28
sg13
S'Verdana'
p41
sg15
I700
sg16
g12
sg17
g12
sg18
VC:\u005cWindows\u005cFonts\u005cverdanaz.ttf
p42
sg20
g21
sbag1
(g8
g3
NtRp43
(dp44
g11
g28
sg13
S'Palatino Linotype'
p45
sg15
I700
sg16
g12
sg17
g12
sg18
VC:\u005cWindows\u005cFonts\u005cpalabi.ttf
p46
sg20
g21
sbag1
(g8
g3
NtRp47
(dp48
g11
g28
sg13
S'JasmineUPC'
p49
sg15
I400
sg16
g12
sg17
g12
sg18
Vc:\u005cwindows\u005cfonts\u005cupcji.ttf
p50
sg20
g21
sbag1
(g8
g3
NtRp51
(dp52
g11
g12
sg13
S'Microsoft Tai Le'
p53
sg15
I700
sg16
g12
sg17
g12
sg18
VC:\u005cWindows\u005cFonts\u005ctaileb.ttf
p54
sg20
g21
sbag1
(g8
g3
NtRp55
(dp56
g11
g12
sg13
S'Trebuchet MS'
p57
sg15
I700
sg16
g12
sg17
g12
sg18
Vc:\u005cwindows\u005cfonts\u005ctrebucbd.ttf
p58
sg20
g21
sbag1
(g8
g3
NtRp59
(dp60
g11
g12
sg13
S'Tahoma'
p61
sg15
I700
sg16
g12
sg17
g12
sg18
VC:\u005cWindows\u005cFonts\u005ctahomabd.ttf
p62
sg20
g21
sbag1
(g8
g3
NtRp63
(dp64
g11
g28
sg13
S'Bell MT'
p65
sg15
I400
sg16
g12
sg17
g12
sg18
Vc:\u005cwindows\u005cfonts\u005cbelli.ttf
p66
sg20
g21
sbag1
(g8
g3
NtRp67
(dp68
g11
g28
sg13
S'Bodoni MT'
p69
sg15
I900
sg16
g12
sg17
g12
sg18
Vc:\u005cwindows\u005cfonts\u005cbod_blai.ttf
p70
sg20
g21
sbag1
(g8
g3
NtRp71
(dp72
g11
g12
sg13
S'Copperplate Gothic Bold'
p73
sg15
I700
sg16
g12
sg17
g12
sg18
VC:\u005cWindows\u005cFonts\u005cCOPRGTB.TTF
p74
sg20
g21
sbag1
(g8
g3
NtRp75
(dp76
g11
g28
sg13
S'Elephant'
p77
sg15
I400
sg16
g12
sg17
g12
sg18
VC:\u005cWindows\u005cFonts\u005cELEPHNTI.TTF
p78
sg20
g21
sbag1
(g8
g3
NtRp79
(dp80
g11
g12
sg13
S'BrowalliaUPC'
p81
sg15
I400
sg16
g12
sg17
g12
sg18
Vc:\u005cwindows\u005cfonts\u005cbrowau.ttf
p82
sg20
g21
sbag1
(g8
g3
NtRp83
(dp84
g11
g12
sg13
S'KaiTi'
p85
sg15
I400
sg16
g12
sg17
g12
sg18
Vc:\u005cwindows\u005cfonts\u005csimkai.ttf
p86
sg20
g21
sbag1
(g8
g3
NtRp87
(dp88
g11
g12
sg13
S'Qualcomm Office'
p89
sg15
I700
sg16
g12
sg17
g12
sg18
Vc:\u005cwindows\u005cfonts\u005cqualcommoffice-bold.ttf
p90
sg20
g21
sbag1
(g8
g3
NtRp91
(dp92
g11
g12
sg13
S'Microsoft Uighur'
p93
sg15
I400
sg16
g12
sg17
g12
sg18
VC:\u005cWindows\u005cFonts\u005cMSUIGHUR.TTF
p94
sg20
g21
sbag1
(g8
g3
NtRp95
(dp96
g11
g12
sg13
S'Franklin Gothic Demi'
p97
sg15
I600
sg16
g12
sg17
g12
sg18
Vc:\u005cwindows\u005cfonts\u005cfradm.ttf
p98
sg20
g21
sbag1
(g8
g3
NtRp99
(dp100
g11
g28
sg13
S'Trebuchet MS'
p101
sg15
I700
sg16
g12
sg17
g12
sg18
Vc:\u005cwindows\u005cfonts\u005ctrebucbi.ttf
p102
sg20
g21
sbag1
(g8
g3
NtRp103
(dp104
g11
g12
sg13
S'Monotype Corsiva'
p105
sg15
I400
sg16
g12
sg17
g12
sg18
Vc:\u005cwindows\u005cfonts\u005cmtcorsva.ttf
p106
sg20
g21
sbag1
(g8
g3
NtRp107
(dp108
g11
g28
sg13
S'Segoe UI'
p109
sg15
I700
sg16
g12
sg17
g12
sg18
Vc:\u005cwindows\u005cfonts\u005csegoeuiz.ttf
p110
sg20
g21
sbag1
(g8
g3
NtRp111
(dp112
g11
g12
sg13
S'Bodoni MT'
p113
sg15
I400
sg16
Vcondensed
p114
sg17
g12
sg18
Vc:\u005cwindows\u005cfonts\u005cbod_cr.ttf
p115
sg20
g21
sbag1
(g8
g3
NtRp116
(dp117
g11
g28
sg13
S'Bodoni MT'
p118
sg15
I700
sg16
g12
sg17
g12
sg18
Vc:\u005cwindows\u005cfonts\u005cbod_bi.ttf
p119
sg20
g21
sbag1
(g8
g3
NtRp120
(dp121
g11
g28
sg13
S'Gill Sans MT'
p122
sg15
I400
sg16
g12
sg17
g12
sg18
Vc:\u005cwindows\u005cfonts\u005cgili____.ttf
p123
sg20
g21
sbag1
(g8
g3
NtRp124
(dp125
g11
g12
sg13
S'Kunstler Script'
p126
sg15
I400
sg16
g12
sg17
g12
sg18
VC:\u005cWindows\u005cFonts\u005cKUNSTLER.TTF
p127
sg20
g21
sbag1
(g8
g3
NtRp128
(dp129
g11
g28
sg13
S'BrowalliaUPC'
p130
sg15
I700
sg16
g12
sg17
g12
sg18
Vc:\u005cwindows\u005cfonts\u005cbrowauz.ttf
p131
sg20
g21
sbag1
(g8
g3
NtRp132
(dp133
g11
g12
sg13
S'Malgun Gothic'
p134
sg15
I700
sg16
g12
sg17
g12
sg18
VC:\u005cWindows\u005cFonts\u005cmalgunbd.ttf
p135
sg20
g21
sbag1
(g8
g3
NtRp136
(dp137
g11
g12
sg13
S'Imprint MT Shadow'
p138
sg15
I400
sg16
g12
sg17
g12
sg18
Vc:\u005cwindows\u005cfonts\u005cimprisha.ttf
p139
sg20
g21
sbag1
(g8
g3
NtRp140
(dp141
g11
g12
sg13
S'DokChampa'
p142
sg15
I400
sg16
g12
sg17
g12
sg18
VC:\u005cWindows\u005cFonts\u005cdokchamp.ttf
p143
sg20
g21
sbag1
(g8
g3
NtRp144
(dp145
g11
g12
sg13
S'Curlz MT'
p146
sg15
I400
sg16
g12
sg17
g12
sg18
VC:\u005cWindows\u005cFonts\u005cCURLZ___.TTF
p147
sg20
g21
sbag1
(g8
g3
NtRp148
(dp149
g11
g28
sg13
S'Arial'
p150
sg15
I400
sg16
g12
sg17
g12
sg18
Vc:\u005cwindows\u005cfonts\u005cariali.ttf
p151
sg20
g21
sbag1
(g8
g3
NtRp152
(dp153
g11
g12
sg13
S'Tw Cen MT'
p154
sg15
I400
sg16
g12
sg17
g12
sg18
Vc:\u005cwindows\u005cfonts\u005ctcm_____.ttf
p155
sg20
g21
sbag1
(g8
g3
NtRp156
(dp157
g11
g12
sg13
S'Khmer UI'
p158
sg15
I700
sg16
g12
sg17
g12
sg18
Vc:\u005cwindows\u005cfonts\u005ckhmeruib.ttf
p159
sg20
g21
sbag1
(g8
g3
NtRp160
(dp161
g11
g12
sg13
S'Tw Cen MT Condensed'
p162
sg15
I700
sg16
g114
sg17
g12
sg18
Vc:\u005cwindows\u005cfonts\u005ctccb____.ttf
p163
sg20
g21
sbag1
(g8
g3
NtRp164
(dp165
g11
g12
sg13
S'Simplified Arabic'
p166
sg15
I400
sg16
g12
sg17
g12
sg18
Vc:\u005cwindows\u005cfonts\u005csimpo.ttf
p167
sg20
g21
sbag1
(g8
g3
NtRp168
(dp169
g11
g12
sg13
S'Arabic Typesetting'
p170
sg15
I400
sg16
g12
sg17
g12
sg18
Vc:\u005cwindows\u005cfonts\u005carabtype.ttf
p171
sg20
g21
sbag1
(g8
g3
NtRp172
(dp173
g11
g12
sg13
S'Kartika'
p174
sg15
I700
sg16
g12
sg17
g12
sg18
VC:\u005cWindows\u005cFonts\u005ckartikab.ttf
p175
sg20
g21
sbag1
(g8
g3
NtRp176
(dp177
g11
g12
sg13
S'Khmer UI'
p178
sg15
I400
sg16
g12
sg17
g12
sg18
Vc:\u005cwindows\u005cfonts\u005ckhmerui.ttf
p179
sg20
g21
sbag1
(g8
g3
NtRp180
(dp181
g11
g12
sg13
S'Segoe UI'
p182
sg15
I400
sg16
g12
sg17
g12
sg18
Vc:\u005cwindows\u005cfonts\u005cseguisb.ttf
p183
sg20
g21
sbag1
(g8
g3
NtRp184
(dp185
g11
g12
sg13
S'Kalinga'
p186
sg15
I400
sg16
g12
sg17
g12
sg18
VC:\u005cWindows\u005cFonts\u005ckalinga.ttf
p187
sg20
g21
sbag1
(g8
g3
NtRp188
(dp189
g11
g12
sg13
S'Kokila'
p190
sg15
I700
sg16
g12
sg17
g12
sg18
VC:\u005cWindows\u005cFonts\u005ckokilab.ttf
p191
sg20
g21
sbag1
(g8
g3
NtRp192
(dp193
g11
g12
sg13
S'Franklin Gothic Heavy'
p194
sg15
I800
sg16
g12
sg17
g12
sg18
VC:\u005cWindows\u005cFonts\u005cFRAHV.TTF
p195
sg20
g21
sbag1
(g8
g3
NtRp196
(dp197
g11
g12
sg13
S'Calibri'
p198
sg15
I200
sg16
g12
sg17
g12
sg18
VC:\u005cWindows\u005cFonts\u005ccalibril.ttf
p199
sg20
g21
sbag1
(g8
g3
NtRp200
(dp201
g11
g12
sg13
S'Cordia New'
p202
sg15
I700
sg16
g12
sg17
g12
sg18
VC:\u005cWindows\u005cFonts\u005ccordiab.ttf
p203
sg20
g21
sbag1
(g8
g3
NtRp204
(dp205
g11
g12
sg13
S'Gautami'
p206
sg15
I700
sg16
g12
sg17
g12
sg18
VC:\u005cWindows\u005cFonts\u005cgautamib.ttf
p207
sg20
g21
sbag1
(g8
g3
NtRp208
(dp209
g11
g12
sg13
S'Euphemia'
p210
sg15
I400
sg16
g12
sg17
g12
sg18
VC:\u005cWindows\u005cFonts\u005ceuphemia.ttf
p211
sg20
g21
sbag1
(g8
g3
NtRp212
(dp213
g11
g28
sg13
S'Georgia'
p214
sg15
I400
sg16
g12
sg17
g12
sg18
VC:\u005cWindows\u005cFonts\u005cgeorgiai.ttf
p215
sg20
g21
sbag1
(g8
g3
NtRp216
(dp217
g11
g12
sg13
S'Pristina'
p218
sg15
I400
sg16
g12
sg17
g12
sg18
Vc:\u005cwindows\u005cfonts\u005cpristina.ttf
p219
sg20
g21
sbag1
(g8
g3
NtRp220
(dp221
g11
g12
sg13
S'Onyx'
p222
sg15
I400
sg16
g12
sg17
g12
sg18
VC:\u005cWindows\u005cFonts\u005cONYX.TTF
p223
sg20
g21
sbag1
(g8
g3
NtRp224
(dp225
g11
g12
sg13
S'Baskerville Old Face'
p226
sg15
I400
sg16
g12
sg17
g12
sg18
VC:\u005cWindows\u005cFonts\u005cBASKVILL.TTF
p227
sg20
g21
sbag1
(g8
g3
NtRp228
(dp229
g11
Voblique
p230
sg13
S'Lucida Sans Typewriter'
p231
sg15
I400
sg16
g12
sg17
g12
sg18
VC:\u005cWindows\u005cFonts\u005cLTYPEO.TTF
p232
sg20
g21
sbag1
(g8
g3
NtRp233
(dp234
g11
g12
sg13
S'Microsoft Himalaya'
p235
sg15
I400
sg16
g12
sg17
g12
sg18
VC:\u005cWindows\u005cFonts\u005chimalaya.ttf
p236
sg20
g21
sbag1
(g8
g3
NtRp237
(dp238
g11
g12
sg13
S'Cordia New'
p239
sg15
I400
sg16
g12
sg17
g12
sg18
VC:\u005cWindows\u005cFonts\u005ccordia.ttf
p240
sg20
g21
sbag1
(g8
g3
NtRp241
(dp242
g11
g28
sg13
S'Californian FB'
p243
sg15
I400
sg16
g12
sg17
g12
sg18
Vc:\u005cwindows\u005cfonts\u005ccalifi.ttf
p244
sg20
g21
sbag1
(g8
g3
NtRp245
(dp246
g11
g12
sg13
S'Consolas'
p247
sg15
I400
sg16
g12
sg17
g12
sg18
Vc:\u005cwindows\u005cfonts\u005cconsola.ttf
p248
sg20
g21
sbag1
(g8
g3
NtRp249
(dp250
g11
g28
sg13
S'Gill Sans MT'
p251
sg15
I700
sg16
g12
sg17
g12
sg18
Vc:\u005cwindows\u005cfonts\u005cgilbi___.ttf
p252
sg20
g21
sbag1
(g8
g3
NtRp253
(dp254
g11
g28
sg13
S'Angsana New'
p255
sg15
I400
sg16
g12
sg17
g12
sg18
VC:\u005cWindows\u005cFonts\u005cangsai.ttf
p256
sg20
g21
sbag1
(g8
g3
NtRp257
(dp258
g11
g12
sg13
S'FreesiaUPC'
p259
sg15
I700
sg16
g12
sg17
g12
sg18
VC:\u005cWindows\u005cFonts\u005cupcfb.ttf
p260
sg20
g21
sbag1
(g8
g3
NtRp261
(dp262
g11
g12
sg13
S'Arial'
p263
sg15
I700
sg16
g12
sg17
g12
sg18
Vc:\u005cwindows\u005cfonts\u005carialbd.ttf
p264
sg20
g21
sbag1
(g8
g3
NtRp265
(dp266
g11
g12
sg13
S'Sakkal Majalla'
p267
sg15
I400
sg16
g12
sg17
g12
sg18
VC:\u005cWindows\u005cFonts\u005cmajalla.ttf
p268
sg20
g21
sbag1
(g8
g3
NtRp269
(dp270
g11
g12
sg13
S'Lao UI'
p271
sg15
I700
sg16
g12
sg17
g12
sg18
Vc:\u005cwindows\u005cfonts\u005claouib.ttf
p272
sg20
g21
sbag1
(g8
g3
NtRp273
(dp274
g11
g12
sg13
S'Microsoft YaHei'
p275
sg15
I400
sg16
g12
sg17
g12
sg18
Vc:\u005cwindows\u005cfonts\u005cmsyh.ttf
p276
sg20
g21
sbag1
(g8
g3
NtRp277
(dp278
g11
g12
sg13
S'Tunga'
p279
sg15
I400
sg16
g12
sg17
g12
sg18
VC:\u005cWindows\u005cFonts\u005ctunga.ttf
p280
sg20
g21
sbag1
(g8
g3
NtRp281
(dp282
g11
g12
sg13
S'Lucida Fax'
p283
sg15
I700
sg16
g12
sg17
g12
sg18
Vc:\u005cwindows\u005cfonts\u005clfaxd.ttf
p284
sg20
g21
sbag1
(g8
g3
NtRp285
(dp286
g11
g28
sg13
S'Cambria'
p287
sg15
I700
sg16
g12
sg17
g12
sg18
VC:\u005cWindows\u005cFonts\u005ccambriaz.ttf
p288
sg20
g21
sbag1
(g8
g3
NtRp289
(dp290
g11
g28
sg13
S'Constantia'
p291
sg15
I700
sg16
g12
sg17
g12
sg18
VC:\u005cWindows\u005cFonts\u005cconstanz.ttf
p292
sg20
g21
sbag1
(g8
g3
NtRp293
(dp294
g11
g28
sg13
S'IrisUPC'
p295
sg15
I700
sg16
g12
sg17
g12
sg18
VC:\u005cWindows\u005cFonts\u005cupcibi.ttf
p296
sg20
g21
sbag1
(g8
g3
NtRp297
(dp298
g11
g12
sg13
S'Maiandra GD'
p299
sg15
I400
sg16
g12
sg17
g12
sg18
Vc:\u005cwindows\u005cfonts\u005cmaian.ttf
p300
sg20
g21
sbag1
(g8
g3
NtRp301
(dp302
g11
g12
sg13
S'Narkisim'
p303
sg15
I400
sg16
g12
sg17
g12
sg18
VC:\u005cWindows\u005cFonts\u005cnrkis.ttf
p304
sg20
g21
sbag1
(g8
g3
NtRp305
(dp306
g11
g12
sg13
S'Microsoft JhengHei'
p307
sg15
I700
sg16
g12
sg17
g12
sg18
Vc:\u005cwindows\u005cfonts\u005cmsjhbd.ttf
p308
sg20
g21
sbag1
(g8
g3
NtRp309
(dp310
g11
g28
sg13
S'Segoe UI'
p311
sg15
I400
sg16
g12
sg17
g12
sg18
VC:\u005cWindows\u005cFonts\u005csegoeuii.ttf
p312
sg20
g21
sbag1
(g8
g3
NtRp313
(dp314
g11
g12
sg13
S'MV Boli'
p315
sg15
I400
sg16
g12
sg17
g12
sg18
VC:\u005cWindows\u005cFonts\u005cmvboli.ttf
p316
sg20
g21
sbag1
(g8
g3
NtRp317
(dp318
g11
g12
sg13
S'KodchiangUPC'
p319
sg15
I400
sg16
g12
sg17
g12
sg18
Vc:\u005cwindows\u005cfonts\u005cupckl.ttf
p320
sg20
g21
sbag1
(g8
g3
NtRp321
(dp322
g11
g12
sg13
S'Levenim MT'
p323
sg15
I700
sg16
g12
sg17
g12
sg18
VC:\u005cWindows\u005cFonts\u005clvnmbd.ttf
p324
sg20
g21
sbag1
(g8
g3
NtRp325
(dp326
g11
g12
sg13
S'Lucida Sans Typewriter'
p327
sg15
I700
sg16
g12
sg17
g12
sg18
VC:\u005cWindows\u005cFonts\u005cLTYPEB.TTF
p328
sg20
g21
sbag1
(g8
g3
NtRp329
(dp330
g11
g28
sg13
S'AngsanaUPC'
p331
sg15
I400
sg16
g12
sg17
g12
sg18
Vc:\u005cwindows\u005cfonts\u005cangsaui.ttf
p332
sg20
g21
sbag1
(g8
g3
NtRp333
(dp334
g11
g12
sg13
S'Calisto MT'
p335
sg15
I700
sg16
g12
sg17
g12
sg18
VC:\u005cWindows\u005cFonts\u005cCALISTB.TTF
p336
sg20
g21
sbag1
(g8
g3
NtRp337
(dp338
g11
g28
sg13
S'Book Antiqua'
p339
sg15
I700
sg16
g12
sg17
g12
sg18
Vc:\u005cwindows\u005cfonts\u005cantquabi.ttf
p340
sg20
g21
sbag1
(g8
g3
NtRp341
(dp342
g11
g28
sg13
S'Tw Cen MT'
p343
sg15
I400
sg16
g12
sg17
g12
sg18
VC:\u005cWindows\u005cFonts\u005cTCMI____.TTF
p344
sg20
g21
sbag1
(g8
g3
NtRp345
(dp346
g11
g28
sg13
S'High Tower Text'
p347
sg15
I400
sg16
g12
sg17
g12
sg18
VC:\u005cWindows\u005cFonts\u005cHTOWERTI.TTF
p348
sg20
g21
sbag1
(g8
g3
NtRp349
(dp350
g11
g12
sg13
S'Lucida Sans'
p351
sg15
I400
sg16
g12
sg17
g12
sg18
VC:\u005cWindows\u005cFonts\u005cLSANS.TTF
p352
sg20
g21
sbag1
(g8
g3
NtRp353
(dp354
g11
g12
sg13
S'Kristen ITC'
p355
sg15
I400
sg16
g12
sg17
g12
sg18
VC:\u005cWindows\u005cFonts\u005cITCKRIST.TTF
p356
sg20
g21
sbag1
(g8
g3
NtRp357
(dp358
g11
g12
sg13
S'Marlett'
p359
sg15
I400
sg16
g12
sg17
g12
sg18
VC:\u005cWindows\u005cFonts\u005cmarlett.ttf
p360
sg20
g21
sbag1
(g8
g3
NtRp361
(dp362
g11
g12
sg13
S'Browallia New'
p363
sg15
I700
sg16
g12
sg17
g12
sg18
Vc:\u005cwindows\u005cfonts\u005cbrowab.ttf
p364
sg20
g21
sbag1
(g8
g3
NtRp365
(dp366
g11
g12
sg13
S'Corbel'
p367
sg15
I700
sg16
g12
sg17
g12
sg18
Vc:\u005cwindows\u005cfonts\u005ccorbelb.ttf
p368
sg20
g21
sbag1
(g8
g3
NtRp369
(dp370
g11
g12
sg13
S'Californian FB'
p371
sg15
I700
sg16
g12
sg17
g12
sg18
Vc:\u005cwindows\u005cfonts\u005ccalifb.ttf
p372
sg20
g21
sbag1
(g8
g3
NtRp373
(dp374
g11
g12
sg13
S'Simplified Arabic'
p375
sg15
I700
sg16
g12
sg17
g12
sg18
Vc:\u005cwindows\u005cfonts\u005csimpbdo.ttf
p376
sg20
g21
sbag1
(g8
g3
NtRp377
(dp378
g11
g12
sg13
S'Franklin Gothic Book'
p379
sg15
I400
sg16
g12
sg17
g12
sg18
VC:\u005cWindows\u005cFonts\u005cFRABK.TTF
p380
sg20
g21
sbag1
(g8
g3
NtRp381
(dp382
g11
g12
sg13
S'Informal Roman'
p383
sg15
I500
sg16
g12
sg17
g12
sg18
Vc:\u005cwindows\u005cfonts\u005cinfroman.ttf
p384
sg20
g21
sbag1
(g8
g3
NtRp385
(dp386
g11
g12
sg13
S'LilyUPC'
p387
sg15
I400
sg16
g12
sg17
g12
sg18
VC:\u005cWindows\u005cFonts\u005cupcll.ttf
p388
sg20
g21
sbag1
(g8
g3
NtRp389
(dp390
g11
g12
sg13
S'Agency FB'
p391
sg15
I700
sg16
g12
sg17
g12
sg18
Vc:\u005cwindows\u005cfonts\u005cagencyb.ttf
p392
sg20
g21
sbag1
(g8
g3
NtRp393
(dp394
g11
g28
sg13
S'FreesiaUPC'
p395
sg15
I700
sg16
g12
sg17
g12
sg18
VC:\u005cWindows\u005cFonts\u005cupcfbi.ttf
p396
sg20
g21
sbag1
(g8
g3
NtRp397
(dp398
g11
g12
sg13
S'Arial Rounded MT Bold'
p399
sg15
I700
sg16
g12
sg17
g12
sg18
VC:\u005cWindows\u005cFonts\u005cARLRDBD.TTF
p400
sg20
g21
sbag1
(g8
g3
NtRp401
(dp402
g11
g12
sg13
S'Nirmala UI'
p403
sg15
I400
sg16
g12
sg17
g12
sg18
Vc:\u005cwindows\u005cfonts\u005cnirmala.ttf
p404
sg20
g21
sbag1
(g8
g3
NtRp405
(dp406
g11
g12
sg13
S'Cooper Black'
p407
sg15
I900
sg16
g12
sg17
g12
sg18
Vc:\u005cwindows\u005cfonts\u005ccoopbl.ttf
p408
sg20
g21
sbag1
(g8
g3
NtRp409
(dp410
g11
g230
sg13
S'Lucida Sans Typewriter'
p411
sg15
I700
sg16
g12
sg17
g12
sg18
Vc:\u005cwindows\u005cfonts\u005cltypebo.ttf
p412
sg20
g21
sbag1
(g8
g3
NtRp413
(dp414
g11
g12
sg13
S'Vrinda'
p415
sg15
I700
sg16
g12
sg17
g12
sg18
VC:\u005cWindows\u005cFonts\u005cvrindab.ttf
p416
sg20
g21
sbag1
(g8
g3
NtRp417
(dp418
g11
g12
sg13
S'Kalinga'
p419
sg15
I700
sg16
g12
sg17
g12
sg18
VC:\u005cWindows\u005cFonts\u005ckalingab.ttf
p420
sg20
g21
sbag1
(g8
g3
NtRp421
(dp422
g11
g28
sg13
S'Calibri'
p423
sg15
I400
sg16
g12
sg17
g12
sg18
VC:\u005cWindows\u005cFonts\u005ccalibrii.ttf
p424
sg20
g21
sbag1
(g8
g3
NtRp425
(dp426
g11
g28
sg13
S'Franklin Gothic Medium'
p427
sg15
I500
sg16
g12
sg17
g12
sg18
VC:\u005cWindows\u005cFonts\u005cframdit.ttf
p428
sg20
g21
sbag1
(g8
g3
NtRp429
(dp430
g11
g12
sg13
S'Segoe UI'
p431
sg15
I400
sg16
g12
sg17
g12
sg18
VC:\u005cWindows\u005cFonts\u005csegoeui.ttf
p432
sg20
g21
sbag1
(g8
g3
NtRp433
(dp434
g11
g28
sg13
S'Utsaah'
p435
sg15
I400
sg16
g12
sg17
g12
sg18
Vc:\u005cwindows\u005cfonts\u005cutsaahi.ttf
p436
sg20
g21
sbag1
(g8
g3
NtRp437
(dp438
g11
g12
sg13
S'Modern No. 20'
p439
sg15
I400
sg16
g12
sg17
g12
sg18
Vc:\u005cwindows\u005cfonts\u005cmod20.ttf
p440
sg20
g21
sbag1
(g8
g3
NtRp441
(dp442
g11
g28
sg13
S'Century Schoolbook'
p443
sg15
I700
sg16
g12
sg17
g12
sg18
Vc:\u005cwindows\u005cfonts\u005cschlbkbi.ttf
p444
sg20
g21
sbag1
(g8
g3
NtRp445
(dp446
g11
g12
sg13
S'DFKai-SB'
p447
sg15
I400
sg16
g12
sg17
g12
sg18
VC:\u005cWindows\u005cFonts\u005ckaiu.ttf
p448
sg20
g21
sbag1
(g8
g3
NtRp449
(dp450
g11
g12
sg13
S'OCR A Extended'
p451
sg15
I400
sg16
g12
sg17
g12
sg18
Vc:\u005cwindows\u005cfonts\u005cocraext.ttf
p452
sg20
g21
sbag1
(g8
g3
NtRp453
(dp454
g11
g28
sg13
S'AngsanaUPC'
p455
sg15
I700
sg16
g12
sg17
g12
sg18
Vc:\u005cwindows\u005cfonts\u005cangsauz.ttf
p456
sg20
g21
sbag1
(g8
g3
NtRp457
(dp458
g11
g12
sg13
S'Shonar Bangla'
p459
sg15
I400
sg16
g12
sg17
g12
sg18
Vc:\u005cwindows\u005cfonts\u005cshonar.ttf
p460
sg20
g21
sbag1
(g8
g3
NtRp461
(dp462
g11
g12
sg13
S'Goudy Old Style'
p463
sg15
I700
sg16
g12
sg17
g12
sg18
VC:\u005cWindows\u005cFonts\u005cGOUDOSB.TTF
p464
sg20
g21
sbag1
(g8
g3
NtRp465
(dp466
g11
g28
sg13
S'Lucida Sans'
p467
sg15
I400
sg16
g12
sg17
g12
sg18
Vc:\u005cwindows\u005cfonts\u005clsansi.ttf
p468
sg20
g21
sbag1
(g8
g3
NtRp469
(dp470
g11
g28
sg13
S'KodchiangUPC'
p471
sg15
I400
sg16
g12
sg17
g12
sg18
VC:\u005cWindows\u005cFonts\u005cupcki.ttf
p472
sg20
g21
sbag1
(g8
g3
NtRp473
(dp474
g11
g12
sg13
S'Microsoft Uighur'
p475
sg15
I700
sg16
g12
sg17
g12
sg18
VC:\u005cWindows\u005cFonts\u005cMSUIGHUB.TTF
p476
sg20
g21
sbag1
(g8
g3
NtRp477
(dp478
g11
g12
sg13
S'Eras Medium ITC'
p479
sg15
I500
sg16
g12
sg17
g12
sg18
Vc:\u005cwindows\u005cfonts\u005cerasmd.ttf
p480
sg20
g21
sbag1
(g8
g3
NtRp481
(dp482
g11
g28
sg13
S'Verdana'
p483
sg15
I400
sg16
g12
sg17
g12
sg18
Vc:\u005cwindows\u005cfonts\u005cverdanai.ttf
p484
sg20
g21
sbag1
(g8
g3
NtRp485
(dp486
g11
g12
sg13
S'Jokerman'
p487
sg15
I400
sg16
g12
sg17
g12
sg18
VC:\u005cWindows\u005cFonts\u005cJOKERMAN.TTF
p488
sg20
g21
sbag1
(g8
g3
NtRp489
(dp490
g11
g12
sg13
S'Constantia'
p491
sg15
I700
sg16
g12
sg17
g12
sg18
VC:\u005cWindows\u005cFonts\u005cconstanb.ttf
p492
sg20
g21
sbag1
(g8
g3
NtRp493
(dp494
g11
g28
sg13
S'Franklin Gothic Demi'
p495
sg15
I600
sg16
g12
sg17
g12
sg18
Vc:\u005cwindows\u005cfonts\u005cfradmit.ttf
p496
sg20
g21
sbag1
(g8
g3
NtRp497
(dp498
g11
g12
sg13
S'Wingdings 2'
p499
sg15
I400
sg16
g12
sg17
g12
sg18
VC:\u005cWindows\u005cFonts\u005cWINGDNG2.TTF
p500
sg20
g21
sbag1
(g8
g3
NtRp501
(dp502
g11
g12
sg13
S'Utsaah'
p503
sg15
I400
sg16
g12
sg17
g12
sg18
Vc:\u005cwindows\u005cfonts\u005cutsaah.ttf
p504
sg20
g21
sbag1
(g8
g3
NtRp505
(dp506
g11
g12
sg13
S'Microsoft YaHei'
p507
sg15
I700
sg16
g12
sg17
g12
sg18
Vc:\u005cwindows\u005cfonts\u005cmsyhbd.ttf
p508
sg20
g21
sbag1
(g8
g3
NtRp509
(dp510
g11
g12
sg13
S'Symbol'
p511
sg15
I400
sg16
g12
sg17
g12
sg18
Vc:\u005cwindows\u005cfonts\u005csymbol.ttf
p512
sg20
g21
sbag1
(g8
g3
NtRp513
(dp514
g11
g28
sg13
S'Bodoni MT'
p515
sg15
I900
sg16
g12
sg17
g12
sg18
VC:\u005cWindows\u005cFonts\u005cBOD_BLAI.TTF
p516
sg20
g21
sbag1
(g8
g3
NtRp517
(dp518
g11
g28
sg13
S'Lucida Bright'
p519
sg15
I400
sg16
g12
sg17
g12
sg18
VC:\u005cWindows\u005cFonts\u005cLBRITEI.TTF
p520
sg20
g21
sbag1
(g8
g3
NtRp521
(dp522
g11
g12
sg13
S'Sylfaen'
p523
sg15
I400
sg16
g12
sg17
g12
sg18
Vc:\u005cwindows\u005cfonts\u005csylfaen.ttf
p524
sg20
g21
sbag1
(g8
g3
NtRp525
(dp526
g11
g12
sg13
S'Rockwell Condensed'
p527
sg15
I700
sg16
g114
sg17
g12
sg18
Vc:\u005cwindows\u005cfonts\u005croccb___.ttf
p528
sg20
g21
sbag1
(g8
g3
NtRp529
(dp530
g11
g12
sg13
S'Lucida Sans'
p531
sg15
I700
sg16
g12
sg17
g12
sg18
VC:\u005cWindows\u005cFonts\u005cLSANSD.TTF
p532
sg20
g21
sbag1
(g8
g3
NtRp533
(dp534
g11
g28
sg13
S'Calibri'
p535
sg15
I700
sg16
g12
sg17
g12
sg18
VC:\u005cWindows\u005cFonts\u005ccalibriz.ttf
p536
sg20
g21
sbag1
(g8
g3
NtRp537
(dp538
g11
g12
sg13
S'Aharoni'
p539
sg15
I700
sg16
g12
sg17
g12
sg18
Vc:\u005cwindows\u005cfonts\u005cahronbd.ttf
p540
sg20
g21
sbag1
(g8
g3
NtRp541
(dp542
g11
g28
sg13
S'Qualcomm Office'
p543
sg15
I700
sg16
g12
sg17
g12
sg18
VC:\u005cWindows\u005cFonts\u005cQualcommOffice-BoldItalic.ttf
p544
sg20
g21
sbag1
(g8
g3
NtRp545
(dp546
g11
g12
sg13
S'Utsaah'
p547
sg15
I700
sg16
g12
sg17
g12
sg18
Vc:\u005cwindows\u005cfonts\u005cutsaahb.ttf
p548
sg20
g21
sbag1
(g8
g3
NtRp549
(dp550
g11
g28
sg13
S'JasmineUPC'
p551
sg15
I700
sg16
g12
sg17
g12
sg18
VC:\u005cWindows\u005cFonts\u005cupcjbi.ttf
p552
sg20
g21
sbag1
(g8
g3
NtRp553
(dp554
g11
g12
sg13
S'Eras Medium ITC'
p555
sg15
I500
sg16
g12
sg17
g12
sg18
VC:\u005cWindows\u005cFonts\u005cERASMD.TTF
p556
sg20
g21
sbag1
(g8
g3
NtRp557
(dp558
g11
g28
sg13
S'Century Schoolbook'
p559
sg15
I400
sg16
g12
sg17
g12
sg18
Vc:\u005cwindows\u005cfonts\u005cschlbki.ttf
p560
sg20
g21
sbag1
(g8
g3
NtRp561
(dp562
g11
g12
sg13
S'EucrosiaUPC'
p563
sg15
I400
sg16
g12
sg17
g12
sg18
Vc:\u005cwindows\u005cfonts\u005cupcel.ttf
p564
sg20
g21
sbag1
(g8
g3
NtRp565
(dp566
g11
g12
sg13
S'Book Antiqua'
p567
sg15
I400
sg16
g12
sg17
g12
sg18
VC:\u005cWindows\u005cFonts\u005cBKANT.TTF
p568
sg20
g21
sbag1
(g8
g3
NtRp569
(dp570
g11
g12
sg13
S'Angsana New'
p571
sg15
I700
sg16
g12
sg17
g12
sg18
VC:\u005cWindows\u005cFonts\u005cangsab.ttf
p572
sg20
g21
sbag1
(g8
g3
NtRp573
(dp574
g11
g12
sg13
S'MoolBoran'
p575
sg15
I400
sg16
g12
sg17
g12
sg18
Vc:\u005cwindows\u005cfonts\u005cmoolbor.ttf
p576
sg20
g21
sbag1
(g8
g3
NtRp577
(dp578
g11
g28
sg13
S'Cambria'
p579
sg15
I400
sg16
g12
sg17
g12
sg18
Vc:\u005cwindows\u005cfonts\u005ccambriai.ttf
p580
sg20
g21
sbag1
(g8
g3
NtRp581
(dp582
g11
g12
sg13
S'Arial'
p583
sg15
I400
sg16
g114
sg17
g12
sg18
VC:\u005cWindows\u005cFonts\u005cARIALN.TTF
p584
sg20
g21
sbag1
(g8
g3
NtRp585
(dp586
g11
g12
sg13
S'Gadugi'
p587
sg15
I400
sg16
g12
sg17
g12
sg18
Vc:\u005cwindows\u005cfonts\u005cgadugi.ttf
p588
sg20
g21
sbag1
(g8
g3
NtRp589
(dp590
g11
g12
sg13
S'Franklin Gothic Demi Cond'
p591
sg15
I600
sg16
g114
sg17
g12
sg18
VC:\u005cWindows\u005cFonts\u005cFRADMCN.TTF
p592
sg20
g21
sbag1
(g8
g3
NtRp593
(dp594
g11
g28
sg13
S'Book Antiqua'
p595
sg15
I700
sg16
g12
sg17
g12
sg18
VC:\u005cWindows\u005cFonts\u005cANTQUABI.TTF
p596
sg20
g21
sbag1
(g8
g3
NtRp597
(dp598
g11
g12
sg13
S'Microsoft Tai Le'
p599
sg15
I400
sg16
g12
sg17
g12
sg18
VC:\u005cWindows\u005cFonts\u005ctaile.ttf
p600
sg20
g21
sbag1
(g8
g3
NtRp601
(dp602
g11
g28
sg13
S'Century Schoolbook'
p603
sg15
I700
sg16
g12
sg17
g12
sg18
VC:\u005cWindows\u005cFonts\u005cSCHLBKBI.TTF
p604
sg20
g21
sbag1
(g8
g3
NtRp605
(dp606
g11
g12
sg13
S'Bernard MT Condensed'
p607
sg15
I400
sg16
g114
sg17
g12
sg18
VC:\u005cWindows\u005cFonts\u005cBERNHC.TTF
p608
sg20
g21
sbag1
(g8
g3
NtRp609
(dp610
g11
g28
sg13
S'EucrosiaUPC'
p611
sg15
I700
sg16
g12
sg17
g12
sg18
VC:\u005cWindows\u005cFonts\u005cupcebi.ttf
p612
sg20
g21
sbag1
(g8
g3
NtRp613
(dp614
g11
g28
sg13
S'Bookman Old Style'
p615
sg15
I400
sg16
g12
sg17
g12
sg18
Vc:\u005cwindows\u005cfonts\u005cbookosi.ttf
p616
sg20
g21
sbag1
(g8
g3
NtRp617
(dp618
g11
g12
sg13
S'Lucida Fax'
p619
sg15
I700
sg16
g12
sg17
g12
sg18
VC:\u005cWindows\u005cFonts\u005cLFAXD.TTF
p620
sg20
g21
sbag1
(g8
g3
NtRp621
(dp622
g11
g12
sg13
S'Gloucester MT Extra Condensed'
p623
sg15
I400
sg16
g114
sg17
g12
sg18
Vc:\u005cwindows\u005cfonts\u005cglecb.ttf
p624
sg20
g21
sbag1
(g8
g3
NtRp625
(dp626
g11
g12
sg13
S'Chiller'
p627
sg15
I400
sg16
g12
sg17
g12
sg18
VC:\u005cWindows\u005cFonts\u005cCHILLER.TTF
p628
sg20
g21
sbag1
(g8
g3
NtRp629
(dp630
g11
g12
sg13
S'Gill Sans Ultra Bold Condensed'
p631
sg15
I700
sg16
g114
sg17
g12
sg18
VC:\u005cWindows\u005cFonts\u005cGILLUBCD.TTF
p632
sg20
g21
sbag1
(g8
g3
NtRp633
(dp634
g11
g28
sg13
S'FreesiaUPC'
p635
sg15
I400
sg16
g12
sg17
g12
sg18
Vc:\u005cwindows\u005cfonts\u005cupcfi.ttf
p636
sg20
g21
sbag1
(g8
g3
NtRp637
(dp638
g11
g12
sg13
S'Franklin Gothic Medium'
p639
sg15
I500
sg16
g12
sg17
g12
sg18
VC:\u005cWindows\u005cFonts\u005cframd.ttf
p640
sg20
g21
sbag1
(g8
g3
NtRp641
(dp642
g11
g28
sg13
S'Lucida Sans'
p643
sg15
I400
sg16
g12
sg17
g12
sg18
VC:\u005cWindows\u005cFonts\u005cLSANSI.TTF
p644
sg20
g21
sbag1
(g8
g3
NtRp645
(dp646
g11
g28
sg13
S'KodchiangUPC'
p647
sg15
I700
sg16
g12
sg17
g12
sg18
VC:\u005cWindows\u005cFonts\u005cupckbi.ttf
p648
sg20
g21
sbag1
(g8
g3
NtRp649
(dp650
g11
g12
sg13
S'Calibri'
p651
sg15
I400
sg16
g12
sg17
g12
sg18
Vc:\u005cwindows\u005cfonts\u005ccalibri.ttf
p652
sg20
g21
sbag1
(g8
g3
NtRp653
(dp654
g11
g12
sg13
S'Felix Titling'
p655
sg15
I400
sg16
g12
sg17
g12
sg18
VC:\u005cWindows\u005cFonts\u005cFELIXTI.TTF
p656
sg20
g21
sbag1
(g8
g3
NtRp657
(dp658
g11
g12
sg13
S'Vladimir Script'
p659
sg15
I400
sg16
g12
sg17
g12
sg18
VC:\u005cWindows\u005cFonts\u005cVLADIMIR.TTF
p660
sg20
g21
sbag1
(g8
g3
NtRp661
(dp662
g11
g12
sg13
S'Impact'
p663
sg15
I400
sg16
g12
sg17
g12
sg18
VC:\u005cWindows\u005cFonts\u005cimpact.ttf
p664
sg20
g21
sbag1
(g8
g3
NtRp665
(dp666
g11
g12
sg13
S'Centaur'
p667
sg15
I400
sg16
g12
sg17
g12
sg18
Vc:\u005cwindows\u005cfonts\u005ccentaur.ttf
p668
sg20
g21
sbag1
(g8
g3
NtRp669
(dp670
g11
g12
sg13
S'IrisUPC'
p671
sg15
I400
sg16
g12
sg17
g12
sg18
Vc:\u005cwindows\u005cfonts\u005cupcil.ttf
p672
sg20
g21
sbag1
(g8
g3
NtRp673
(dp674
g11
g12
sg13
S'Broadway'
p675
sg15
I400
sg16
g12
sg17
g12
sg18
VC:\u005cWindows\u005cFonts\u005cBROADW.TTF
p676
sg20
g21
sbag1
(g8
g3
NtRp677
(dp678
g11
g12
sg13
S'Colonna MT'
p679
sg15
I400
sg16
g12
sg17
g12
sg18
VC:\u005cWindows\u005cFonts\u005cCOLONNA.TTF
p680
sg20
g21
sbag1
(g8
g3
NtRp681
(dp682
g11
g12
sg13
S'Gill Sans MT'
p683
sg15
I700
sg16
g12
sg17
g12
sg18
VC:\u005cWindows\u005cFonts\u005cGILB____.TTF
p684
sg20
g21
sbag1
(g8
g3
NtRp685
(dp686
g11
g12
sg13
S'Wingdings'
p687
sg15
I400
sg16
g12
sg17
g12
sg18
VC:\u005cWindows\u005cFonts\u005cwingding.ttf
p688
sg20
g21
sbag1
(g8
g3
NtRp689
(dp690
g11
g28
sg13
S'Calisto MT'
p691
sg15
I400
sg16
g12
sg17
g12
sg18
VC:\u005cWindows\u005cFonts\u005cCALISTI.TTF
p692
sg20
g21
sbag1
(g8
g3
NtRp693
(dp694
g11
g12
sg13
S'Latha'
p695
sg15
I400
sg16
g12
sg17
g12
sg18
Vc:\u005cwindows\u005cfonts\u005clatha.ttf
p696
sg20
g21
sbag1
(g8
g3
NtRp697
(dp698
g11
g12
sg13
S'Perpetua'
p699
sg15
I400
sg16
g12
sg17
g12
sg18
Vc:\u005cwindows\u005cfonts\u005cper_____.ttf
p700
sg20
g21
sbag1
(g8
g3
NtRp701
(dp702
g11
g12
sg13
S'Mangal'
p703
sg15
I700
sg16
g12
sg17
g12
sg18
VC:\u005cWindows\u005cFonts\u005cmangalb.ttf
p704
sg20
g21
sbag1
(g8
g3
NtRp705
(dp706
g11
g12
sg13
S'Kartika'
p707
sg15
I400
sg16
g12
sg17
g12
sg18
VC:\u005cWindows\u005cFonts\u005ckartika.ttf
p708
sg20
g21
sbag1
(g8
g3
NtRp709
(dp710
g11
g12
sg13
S'Vani'
p711
sg15
I400
sg16
g12
sg17
g12
sg18
Vc:\u005cwindows\u005cfonts\u005cvani.ttf
p712
sg20
g21
sbag1
(g8
g3
NtRp713
(dp714
g11
g12
sg13
S'Arial Rounded MT Bold'
p715
sg15
I700
sg16
g12
sg17
g12
sg18
Vc:\u005cwindows\u005cfonts\u005carlrdbd.ttf
p716
sg20
g21
sbag1
(g8
g3
NtRp717
(dp718
g11
g12
sg13
S'DilleniaUPC'
p719
sg15
I400
sg16
g12
sg17
g12
sg18
Vc:\u005cwindows\u005cfonts\u005cupcdl.ttf
p720
sg20
g21
sbag1
(g8
g3
NtRp721
(dp722
g11
g28
sg13
S'Calisto MT'
p723
sg15
I700
sg16
g12
sg17
g12
sg18
VC:\u005cWindows\u005cFonts\u005cCALISTBI.TTF
p724
sg20
g21
sbag1
(g8
g3
NtRp725
(dp726
g11
g12
sg13
S'Bernard MT Condensed'
p727
sg15
I400
sg16
g114
sg17
g12
sg18
Vc:\u005cwindows\u005cfonts\u005cbernhc.ttf
p728
sg20
g21
sbag1
(g8
g3
NtRp729
(dp730
g11
g12
sg13
S'Lucida Sans Unicode'
p731
sg15
I400
sg16
g12
sg17
g12
sg18
VC:\u005cWindows\u005cFonts\u005cl_10646.ttf
p732
sg20
g21
sbag1
(g8
g3
NtRp733
(dp734
g11
g12
sg13
S'Castellar'
p735
sg15
I400
sg16
g12
sg17
g12
sg18
Vc:\u005cwindows\u005cfonts\u005ccastelar.ttf
p736
sg20
g21
sbag1
(g8
g3
NtRp737
(dp738
g11
g12
sg13
S'Magneto'
p739
sg15
I700
sg16
g12
sg17
g12
sg18
Vc:\u005cwindows\u005cfonts\u005cmagnetob.ttf
p740
sg20
g21
sbag1
(g8
g3
NtRp741
(dp742
g11
g28
sg13
S'Qualcomm Office'
p743
sg15
I700
sg16
g12
sg17
g12
sg18
Vc:\u005cwindows\u005cfonts\u005cqualcommoffice-semibolditalic.ttf
p744
sg20
g21
sbag1
(g8
g3
NtRp745
(dp746
g11
g12
sg13
S'Script MT Bold'
p747
sg15
I700
sg16
g12
sg17
g12
sg18
VC:\u005cWindows\u005cFonts\u005cSCRIPTBL.TTF
p748
sg20
g21
sbag1
(g8
g3
NtRp749
(dp750
g11
g12
sg13
S'Berlin Sans FB Demi'
p751
sg15
I700
sg16
g12
sg17
g12
sg18
VC:\u005cWindows\u005cFonts\u005cBRLNSDB.TTF
p752
sg20
g21
sbag1
(g8
g3
NtRp753
(dp754
g11
g12
sg13
S'Arial Unicode MS'
p755
sg15
I400
sg16
g12
sg17
g12
sg18
Vc:\u005cwindows\u005cfonts\u005carialuni.ttf
p756
sg20
g21
sbag1
(g8
g3
NtRp757
(dp758
g11
g28
sg13
S'Aparajita'
p759
sg15
I700
sg16
g12
sg17
g12
sg18
Vc:\u005cwindows\u005cfonts\u005caparajbi.ttf
p760
sg20
g21
sbag1
(g8
g3
NtRp761
(dp762
g11
g12
sg13
S'Ebrima'
p763
sg15
I700
sg16
g12
sg17
g12
sg18
Vc:\u005cwindows\u005cfonts\u005cebrimabd.ttf
p764
sg20
g21
sbag1
(g8
g3
NtRp765
(dp766
g11
g12
sg13
S'Segoe Print'
p767
sg15
I400
sg16
g12
sg17
g12
sg18
VC:\u005cWindows\u005cFonts\u005csegoepr.ttf
p768
sg20
g21
sbag1
(g8
g3
NtRp769
(dp770
g11
g12
sg13
S'Microsoft Sans Serif'
p771
sg15
I400
sg16
g12
sg17
g12
sg18
VC:\u005cWindows\u005cFonts\u005cmicross.ttf
p772
sg20
g21
sbag1
(g8
g3
NtRp773
(dp774
g11
g12
sg13
S'Gill Sans Ultra Bold Condensed'
p775
sg15
I700
sg16
g114
sg17
g12
sg18
Vc:\u005cwindows\u005cfonts\u005cgillubcd.ttf
p776
sg20
g21
sbag1
(g8
g3
NtRp777
(dp778
g11
g12
sg13
S'Mistral'
p779
sg15
I400
sg16
g12
sg17
g12
sg18
Vc:\u005cwindows\u005cfonts\u005cmistral.ttf
p780
sg20
g21
sbag1
(g8
g3
NtRp781
(dp782
g11
g12
sg13
S'Wingdings 3'
p783
sg15
I400
sg16
g12
sg17
g12
sg18
VC:\u005cWindows\u005cFonts\u005cWINGDNG3.TTF
p784
sg20
g21
sbag1
(g8
g3
NtRp785
(dp786
g11
g28
sg13
S'Kokila'
p787
sg15
I700
sg16
g12
sg17
g12
sg18
VC:\u005cWindows\u005cFonts\u005ckokilabi.ttf
p788
sg20
g21
sbag1
(g8
g3
NtRp789
(dp790
g11
g28
sg13
S'Gill Sans MT'
p791
sg15
I700
sg16
g12
sg17
g12
sg18
VC:\u005cWindows\u005cFonts\u005cGILBI___.TTF
p792
sg20
g21
sbag1
(g8
g3
NtRp793
(dp794
g11
g12
sg13
S'Palace Script MT'
p795
sg15
I400
sg16
g12
sg17
g12
sg18
VC:\u005cWindows\u005cFonts\u005cPALSCRI.TTF
p796
sg20
g21
sbag1
(g8
g3
NtRp797
(dp798
g11
g12
sg13
S'Segoe Print'
p799
sg15
I700
sg16
g12
sg17
g12
sg18
VC:\u005cWindows\u005cFonts\u005csegoeprb.ttf
p800
sg20
g21
sbag1
(g8
g3
NtRp801
(dp802
g11
g12
sg13
S'FreesiaUPC'
p803
sg15
I400
sg16
g12
sg17
g12
sg18
VC:\u005cWindows\u005cFonts\u005cupcfl.ttf
p804
sg20
g21
sbag1
(g8
g3
NtRp805
(dp806
g11
g28
sg13
S'Perpetua'
p807
sg15
I400
sg16
g12
sg17
g12
sg18
Vc:\u005cwindows\u005cfonts\u005cperi____.ttf
p808
sg20
g21
sbag1
(g8
g3
NtRp809
(dp810
g11
g12
sg13
S'Miriam Fixed'
p811
sg15
I400
sg16
g12
sg17
g12
sg18
Vc:\u005cwindows\u005cfonts\u005cmriamc.ttf
p812
sg20
g21
sbag1
(g8
g3
NtRp813
(dp814
g11
g12
sg13
S'Qualcomm Office'
p815
sg15
I200
sg16
g12
sg17
g12
sg18
VC:\u005cWindows\u005cFonts\u005cQualcommOffice-Light.ttf
p816
sg20
g21
sbag1
(g8
g3
NtRp817
(dp818
g11
g28
sg13
S'IrisUPC'
p819
sg15
I400
sg16
g12
sg17
g12
sg18
Vc:\u005cwindows\u005cfonts\u005cupcii.ttf
p820
sg20
g21
sbag1
(g8
g3
NtRp821
(dp822
g11
g12
sg13
S'Copperplate Gothic Light'
p823
sg15
I200
sg16
g12
sg17
g12
sg18
Vc:\u005cwindows\u005cfonts\u005ccoprgtl.ttf
p824
sg20
g21
sbag1
(g8
g3
NtRp825
(dp826
g11
g28
sg13
S'Tw Cen MT'
p827
sg15
I400
sg16
g12
sg17
g12
sg18
Vc:\u005cwindows\u005cfonts\u005ctcmi____.ttf
p828
sg20
g21
sbag1
(g8
g3
NtRp829
(dp830
g11
g28
sg13
S'Cordia New'
p831
sg15
I700
sg16
g12
sg17
g12
sg18
VC:\u005cWindows\u005cFonts\u005ccordiaz.ttf
p832
sg20
g21
sbag1
(g8
g3
NtRp833
(dp834
g11
g12
sg13
S'Times New Roman'
p835
sg15
I500
sg16
g12
sg17
g12
sg18
Vc:\u005cwindows\u005cfonts\u005ctimes.ttf
p836
sg20
g21
sbag1
(g8
g3
NtRp837
(dp838
g11
g12
sg13
S'Wingdings 2'
p839
sg15
I400
sg16
g12
sg17
g12
sg18
Vc:\u005cwindows\u005cfonts\u005cwingdng2.ttf
p840
sg20
g21
sbag1
(g8
g3
NtRp841
(dp842
g11
g12
sg13
S'Consolas'
p843
sg15
I700
sg16
g12
sg17
g12
sg18
Vc:\u005cwindows\u005cfonts\u005cconsolab.ttf
p844
sg20
g21
sbag1
(g8
g3
NtRp845
(dp846
g11
g12
sg13
S'Qualcomm Office'
p847
sg15
I400
sg16
g12
sg17
g12
sg18
VC:\u005cWindows\u005cFonts\u005cQualcommOffice-Thin.ttf
p848
sg20
g21
sbag1
(g8
g3
NtRp849
(dp850
g11
g12
sg13
S'Vijaya'
p851
sg15
I700
sg16
g12
sg17
g12
sg18
Vc:\u005cwindows\u005cfonts\u005cvijayab.ttf
p852
sg20
g21
sbag1
(g8
g3
NtRp853
(dp854
g11
g28
sg13
S'Courier New'
p855
sg15
I400
sg16
g12
sg17
g12
sg18
Vc:\u005cwindows\u005cfonts\u005ccouri.ttf
p856
sg20
g21
sbag1
(g8
g3
NtRp857
(dp858
g11
g12
sg13
S'Shruti'
p859
sg15
I700
sg16
g12
sg17
g12
sg18
VC:\u005cWindows\u005cFonts\u005cshrutib.ttf
p860
sg20
g21
sbag1
(g8
g3
NtRp861
(dp862
g11
g28
sg13
S'CordiaUPC'
p863
sg15
I700
sg16
g12
sg17
g12
sg18
Vc:\u005cwindows\u005cfonts\u005ccordiauz.ttf
p864
sg20
g21
sbag1
(g8
g3
NtRp865
(dp866
g11
g12
sg13
S'Leelawadee'
p867
sg15
I400
sg16
g12
sg17
g12
sg18
Vc:\u005cwindows\u005cfonts\u005cleelawad.ttf
p868
sg20
g21
sbag1
(g8
g3
NtRp869
(dp870
g11
g12
sg13
S'Qualcomm Office'
p871
sg15
I700
sg16
g12
sg17
g12
sg18
VC:\u005cWindows\u005cFonts\u005cQualcommOffice-Semibold.ttf
p872
sg20
g21
sbag1
(g8
g3
NtRp873
(dp874
g11
g12
sg13
S'Arial'
p875
sg15
I400
sg16
g12
sg17
g12
sg18
Vc:\u005cwindows\u005cfonts\u005carial.ttf
p876
sg20
g21
sbag1
(g8
g3
NtRp877
(dp878
g11
g28
sg13
S'Bodoni MT'
p879
sg15
I400
sg16
g12
sg17
g12
sg18
Vc:\u005cwindows\u005cfonts\u005cbod_i.ttf
p880
sg20
g21
sbag1
(g8
g3
NtRp881
(dp882
g11
g12
sg13
S'Shonar Bangla'
p883
sg15
I700
sg16
g12
sg17
g12
sg18
Vc:\u005cwindows\u005cfonts\u005cshonarb.ttf
p884
sg20
g21
sbag1
(g8
g3
NtRp885
(dp886
g11
g28
sg13
S'Consolas'
p887
sg15
I400
sg16
g12
sg17
g12
sg18
VC:\u005cWindows\u005cFonts\u005cconsolai.ttf
p888
sg20
g21
sbag1
(g8
g3
NtRp889
(dp890
g11
g12
sg13
S'Engravers MT'
p891
sg15
I400
sg16
g12
sg17
g12
sg18
Vc:\u005cwindows\u005cfonts\u005cengr.ttf
p892
sg20
g21
sbag1
(g8
g3
NtRp893
(dp894
g11
g28
sg13
S'Lucida Fax'
p895
sg15
I700
sg16
g12
sg17
g12
sg18
VC:\u005cWindows\u005cFonts\u005cLFAXDI.TTF
p896
sg20
g21
sbag1
(g8
g3
NtRp897
(dp898
g11
g12
sg13
S'Century Gothic'
p899
sg15
I400
sg16
g12
sg17
g12
sg18
VC:\u005cWindows\u005cFonts\u005cGOTHIC.TTF
p900
sg20
g21
sbag1
(g8
g3
NtRp901
(dp902
g11
g12
sg13
S'Bauhaus 93'
p903
sg15
I400
sg16
g12
sg17
g12
sg18
VC:\u005cWindows\u005cFonts\u005cBAUHS93.TTF
p904
sg20
g21
sbag1
(g8
g3
NtRp905
(dp906
g11
g12
sg13
S'Haettenschweiler'
p907
sg15
I400
sg16
g12
sg17
g12
sg18
VC:\u005cWindows\u005cFonts\u005cHATTEN.TTF
p908
sg20
g21
sbag1
(g8
g3
NtRp909
(dp910
g11
g12
sg13
S'Microsoft JhengHei'
p911
sg15
I400
sg16
g12
sg17
g12
sg18
Vc:\u005cwindows\u005cfonts\u005cmsjh.ttf
p912
sg20
g21
sbag1
(g8
g3
NtRp913
(dp914
g11
g12
sg13
S'MS Reference Sans Serif'
p915
sg15
I400
sg16
g12
sg17
g12
sg18
Vc:\u005cwindows\u005cfonts\u005crefsan.ttf
p916
sg20
g21
sbag1
(g8
g3
NtRp917
(dp918
g11
g12
sg13
S'Bookman Old Style'
p919
sg15
I700
sg16
g12
sg17
g12
sg18
Vc:\u005cwindows\u005cfonts\u005cbookosb.ttf
p920
sg20
g21
sbag1
(g8
g3
NtRp921
(dp922
g11
g12
sg13
S'BrowalliaUPC'
p923
sg15
I700
sg16
g12
sg17
g12
sg18
Vc:\u005cwindows\u005cfonts\u005cbrowaub.ttf
p924
sg20
g21
sbag1
(g8
g3
NtRp925
(dp926
g11
g28
sg13
S'DilleniaUPC'
p927
sg15
I700
sg16
g12
sg17
g12
sg18
Vc:\u005cwindows\u005cfonts\u005cupcdbi.ttf
p928
sg20
g21
sbag1
(g8
g3
NtRp929
(dp930
g11
g12
sg13
S'Felix Titling'
p931
sg15
I400
sg16
g12
sg17
g12
sg18
Vc:\u005cwindows\u005cfonts\u005cfelixti.ttf
p932
sg20
g21
sbag1
(g8
g3
NtRp933
(dp934
g11
g28
sg13
S'Kokila'
p935
sg15
I400
sg16
g12
sg17
g12
sg18
VC:\u005cWindows\u005cFonts\u005ckokilai.ttf
p936
sg20
g21
sbag1
(g8
g3
NtRp937
(dp938
g11
g12
sg13
S'Segoe Script'
p939
sg15
I400
sg16
g12
sg17
g12
sg18
VC:\u005cWindows\u005cFonts\u005csegoesc.ttf
p940
sg20
g21
sbag1
(g8
g3
NtRp941
(dp942
g11
g28
sg13
S'Palatino Linotype'
p943
sg15
I400
sg16
g12
sg17
g12
sg18
Vc:\u005cwindows\u005cfonts\u005cpalai.ttf
p944
sg20
g21
sbag1
(g8
g3
NtRp945
(dp946
g11
g28
sg13
S'Franklin Gothic Heavy'
p947
sg15
I800
sg16
g12
sg17
g12
sg18
Vc:\u005cwindows\u005cfonts\u005cfrahvit.ttf
p948
sg20
g21
sbag1
(g8
g3
NtRp949
(dp950
g11
g12
sg13
S'Malgun Gothic'
p951
sg15
I400
sg16
g12
sg17
g12
sg18
VC:\u005cWindows\u005cFonts\u005cmalgun.ttf
p952
sg20
g21
sbag1
(g8
g3
NtRp953
(dp954
g11
g12
sg13
S'Berlin Sans FB'
p955
sg15
I400
sg16
g12
sg17
g12
sg18
VC:\u005cWindows\u005cFonts\u005cBRLNSR.TTF
p956
sg20
g21
sbag1
(g8
g3
NtRp957
(dp958
g11
g12
sg13
S'JasmineUPC'
p959
sg15
I700
sg16
g12
sg17
g12
sg18
Vc:\u005cwindows\u005cfonts\u005cupcjb.ttf
p960
sg20
g21
sbag1
(g8
g3
NtRp961
(dp962
g11
g12
sg13
S'David'
p963
sg15
I700
sg16
g12
sg17
g12
sg18
Vc:\u005cwindows\u005cfonts\u005cdavidbd.ttf
p964
sg20
g21
sbag1
(g8
g3
NtRp965
(dp966
g11
g28
sg13
S'Constantia'
p967
sg15
I400
sg16
g12
sg17
g12
sg18
VC:\u005cWindows\u005cFonts\u005cconstani.ttf
p968
sg20
g21
sbag1
(g8
g3
NtRp969
(dp970
g11
g28
sg13
S'Perpetua'
p971
sg15
I400
sg16
g12
sg17
g12
sg18
VC:\u005cWindows\u005cFonts\u005cPERI____.TTF
p972
sg20
g21
sbag1
(g8
g3
NtRp973
(dp974
g11
g12
sg13
S'Bodoni MT'
p975
sg15
I700
sg16
g12
sg17
g12
sg18
Vc:\u005cwindows\u005cfonts\u005cbod_b.ttf
p976
sg20
g21
sbag1
(g8
g3
NtRp977
(dp978
g11
g12
sg13
S'MS Mincho'
p979
sg15
I400
sg16
g12
sg17
g12
sg18
Vc:\u005cwindows\u005cfonts\u005cmsmincho.ttf
p980
sg20
g21
sbag1
(g8
g3
NtRp981
(dp982
g11
g12
sg13
S'Century Schoolbook'
p983
sg15
I700
sg16
g12
sg17
g12
sg18
Vc:\u005cwindows\u005cfonts\u005cschlbkb.ttf
p984
sg20
g21
sbag1
(g8
g3
NtRp985
(dp986
g11
g12
sg13
S'Chiller'
p987
sg15
I400
sg16
g12
sg17
g12
sg18
Vc:\u005cwindows\u005cfonts\u005cchiller.ttf
p988
sg20
g21
sbag1
(g8
g3
NtRp989
(dp990
g11
g12
sg13
S'Book Antiqua'
p991
sg15
I700
sg16
g12
sg17
g12
sg18
VC:\u005cWindows\u005cFonts\u005cANTQUAB.TTF
p992
sg20
g21
sbag1
(g8
g3
NtRp993
(dp994
g11
g12
sg13
S'Constantia'
p995
sg15
I400
sg16
g12
sg17
g12
sg18
Vc:\u005cwindows\u005cfonts\u005cconstan.ttf
p996
sg20
g21
sbag1
(g8
g3
NtRp997
(dp998
g11
g28
sg13
S'Arial'
p999
sg15
I400
sg16
g114
sg17
g12
sg18
VC:\u005cWindows\u005cFonts\u005cARIALNI.TTF
p1000
sg20
g21
sbag1
(g8
g3
NtRp1001
(dp1002
g11
g12
sg13
S'Simplified Arabic Fixed'
p1003
sg15
I400
sg16
g12
sg17
g12
sg18
Vc:\u005cwindows\u005cfonts\u005csimpfxo.ttf
p1004
sg20
g21
sbag1
(g8
g3
NtRp1005
(dp1006
g11
g12
sg13
S'Mangal'
p1007
sg15
I400
sg16
g12
sg17
g12
sg18
Vc:\u005cwindows\u005cfonts\u005cmangal.ttf
p1008
sg20
g21
sbag1
(g8
g3
NtRp1009
(dp1010
g11
g12
sg13
S'Trebuchet MS'
p1011
sg15
I400
sg16
g12
sg17
g12
sg18
Vc:\u005cwindows\u005cfonts\u005ctrebuc.ttf
p1012
sg20
g21
sbag1
(g8
g3
NtRp1013
(dp1014
g11
g12
sg13
S'SimHei'
p1015
sg15
I400
sg16
g12
sg17
g12
sg18
Vc:\u005cwindows\u005cfonts\u005csimhei.ttf
p1016
sg20
g21
sbag1
(g8
g3
NtRp1017
(dp1018
g11
g12
sg13
S'Matura MT Script Capitals'
p1019
sg15
I400
sg16
g12
sg17
g12
sg18
VC:\u005cWindows\u005cFonts\u005cMATURASC.TTF
p1020
sg20
g21
sbag1
(g8
g3
NtRp1021
(dp1022
g11
g12
sg13
S'Gill Sans MT'
p1023
sg15
I400
sg16
g12
sg17
g12
sg18
Vc:\u005cwindows\u005cfonts\u005cgil_____.ttf
p1024
sg20
g21
sbag1
(g8
g3
NtRp1025
(dp1026
g11
g12
sg13
S'Lao UI'
p1027
sg15
I400
sg16
g12
sg17
g12
sg18
Vc:\u005cwindows\u005cfonts\u005claoui.ttf
p1028
sg20
g21
sbag1
(g8
g3
NtRp1029
(dp1030
g11
g12
sg13
S'Gill Sans MT Ext Condensed Bold'
p1031
sg15
I700
sg16
g114
sg17
g12
sg18
VC:\u005cWindows\u005cFonts\u005cGLSNECB.TTF
p1032
sg20
g21
sbag1
(g8
g3
NtRp1033
(dp1034
g11
g28
sg13
S'Qualcomm Office'
p1035
sg15
I400
sg16
g12
sg17
g12
sg18
VC:\u005cWindows\u005cFonts\u005cQualcommOffice-ThinItalic.ttf
p1036
sg20
g21
sbag1
(g8
g3
NtRp1037
(dp1038
g11
g12
sg13
S'Rockwell'
p1039
sg15
I700
sg16
g12
sg17
g12
sg18
Vc:\u005cwindows\u005cfonts\u005crockb.ttf
p1040
sg20
g21
sbag1
(g8
g3
NtRp1041
(dp1042
g11
g28
sg13
S'Brush Script MT'
p1043
sg15
I400
sg16
g12
sg17
g12
sg18
VC:\u005cWindows\u005cFonts\u005cBRUSHSCI.TTF
p1044
sg20
g21
sbag1
(g8
g3
NtRp1045
(dp1046
g11
g28
sg13
S'BrowalliaUPC'
p1047
sg15
I400
sg16
g12
sg17
g12
sg18
VC:\u005cWindows\u005cFonts\u005cbrowaui.ttf
p1048
sg20
g21
sbag1
(g8
g3
NtRp1049
(dp1050
g11
g12
sg13
S'DaunPenh'
p1051
sg15
I400
sg16
g12
sg17
g12
sg18
Vc:\u005cwindows\u005cfonts\u005cdaunpenh.ttf
p1052
sg20
g21
sbag1
(g8
g3
NtRp1053
(dp1054
g11
g12
sg13
S'Californian FB'
p1055
sg15
I400
sg16
g12
sg17
g12
sg18
Vc:\u005cwindows\u005cfonts\u005ccalifr.ttf
p1056
sg20
g21
sbag1
(g8
g3
NtRp1057
(dp1058
g11
g12
sg13
S'Calisto MT'
p1059
sg15
I400
sg16
g12
sg17
g12
sg18
VC:\u005cWindows\u005cFonts\u005cCALIST.TTF
p1060
sg20
g21
sbag1
(g8
g3
NtRp1061
(dp1062
g11
g12
sg13
S'Qualcomm Office'
p1063
sg15
I400
sg16
g12
sg17
g12
sg18
VC:\u005cWindows\u005cFonts\u005cQualcommOffice-Regular.ttf
p1064
sg20
g21
sbag1
(g8
g3
NtRp1065
(dp1066
g11
g12
sg13
S'Traditional Arabic'
p1067
sg15
I700
sg16
g12
sg17
g12
sg18
Vc:\u005cwindows\u005cfonts\u005ctradbdo.ttf
p1068
sg20
g21
sbag1
(g8
g3
NtRp1069
(dp1070
g11
g12
sg13
S'Arial'
p1071
sg15
I900
sg16
g12
sg17
g12
sg18
VC:\u005cWindows\u005cFonts\u005cariblk.ttf
p1072
sg20
g21
sbag1
(g8
g3
NtRp1073
(dp1074
g11
g12
sg13
S'Century Schoolbook'
p1075
sg15
I400
sg16
g12
sg17
g12
sg18
Vc:\u005cwindows\u005cfonts\u005ccenscbk.ttf
p1076
sg20
g21
sbag1
(g8
g3
NtRp1077
(dp1078
g11
g12
sg13
S'Corbel'
p1079
sg15
I400
sg16
g12
sg17
g12
sg18
VC:\u005cWindows\u005cFonts\u005ccorbel.ttf
p1080
sg20
g21
sbag1
(g8
g3
NtRp1081
(dp1082
g11
g12
sg13
S'Gloucester MT Extra Condensed'
p1083
sg15
I400
sg16
g114
sg17
g12
sg18
VC:\u005cWindows\u005cFonts\u005cGLECB.TTF
p1084
sg20
g21
sbag1
(g8
g3
NtRp1085
(dp1086
g11
g12
sg13
S'Gautami'
p1087
sg15
I400
sg16
g12
sg17
g12
sg18
VC:\u005cWindows\u005cFonts\u005cgautami.ttf
p1088
sg20
g21
sbag1
(g8
g3
NtRp1089
(dp1090
g11
g12
sg13
S'Niagara Solid'
p1091
sg15
I400
sg16
g12
sg17
g12
sg18
VC:\u005cWindows\u005cFonts\u005cNIAGSOL.TTF
p1092
sg20
g21
sbag1
(g8
g3
NtRp1093
(dp1094
g11
g12
sg13
S'Microsoft Yi Baiti'
p1095
sg15
I400
sg16
g12
sg17
g12
sg18
VC:\u005cWindows\u005cFonts\u005cmsyi.ttf
p1096
sg20
g21
sbag1
(g8
g3
NtRp1097
(dp1098
g11
g12
sg13
S'Calibri'
p1099
sg15
I700
sg16
g12
sg17
g12
sg18
VC:\u005cWindows\u005cFonts\u005ccalibrib.ttf
p1100
sg20
g21
sbag1
(g8
g3
NtRp1101
(dp1102
g11
g12
sg13
S'Levenim MT'
p1103
sg15
I400
sg16
g12
sg17
g12
sg18
VC:\u005cWindows\u005cFonts\u005clvnm.ttf
p1104
sg20
g21
sbag1
(g8
g3
NtRp1105
(dp1106
g11
g12
sg13
S'Bookman Old Style'
p1107
sg15
I700
sg16
g12
sg17
g12
sg18
VC:\u005cWindows\u005cFonts\u005cBOOKOSB.TTF
p1108
sg20
g21
sbag1
(g8
g3
NtRp1109
(dp1110
g11
g12
sg13
S'DilleniaUPC'
p1111
sg15
I700
sg16
g12
sg17
g12
sg18
Vc:\u005cwindows\u005cfonts\u005cupcdb.ttf
p1112
sg20
g21
sbag1
(g8
g3
NtRp1113
(dp1114
g11
g28
sg13
S'Tw Cen MT'
p1115
sg15
I700
sg16
g12
sg17
g12
sg18
Vc:\u005cwindows\u005cfonts\u005ctcbi____.ttf
p1116
sg20
g21
sbag1
(g8
g3
NtRp1117
(dp1118
g11
g12
sg13
S'LilyUPC'
p1119
sg15
I700
sg16
g12
sg17
g12
sg18
VC:\u005cWindows\u005cFonts\u005cupclb.ttf
p1120
sg20
g21
sbag1
(g8
g3
NtRp1121
(dp1122
g11
g12
sg13
S'Verdana'
p1123
sg15
I700
sg16
g12
sg17
g12
sg18
Vc:\u005cwindows\u005cfonts\u005cverdanab.ttf
p1124
sg20
g21
sbag1
(g8
g3
NtRp1125
(dp1126
g11
g12
sg13
S'Microsoft PhagsPa'
p1127
sg15
I700
sg16
g12
sg17
g12
sg18
VC:\u005cWindows\u005cFonts\u005cphagspab.ttf
p1128
sg20
g21
sbag1
(g8
g3
NtRp1129
(dp1130
g11
g28
sg13
S'Courier New'
p1131
sg15
I700
sg16
g12
sg17
g12
sg18
Vc:\u005cwindows\u005cfonts\u005ccourbi.ttf
p1132
sg20
g21
sbag1
(g8
g3
NtRp1133
(dp1134
g11
g12
sg13
S'SWGamekeys MT'
p1135
sg15
I400
sg16
g12
sg17
g12
sg18
VC:\u005cWindows\u005cFonts\u005cSwkeys1.ttf
p1136
sg20
g21
sbag1
(g8
g3
NtRp1137
(dp1138
g11
g12
sg13
S'Microsoft PhagsPa'
p1139
sg15
I400
sg16
g12
sg17
g12
sg18
Vc:\u005cwindows\u005cfonts\u005cphagspa.ttf
p1140
sg20
g21
sbag1
(g8
g3
NtRp1141
(dp1142
g11
g12
sg13
S'Wingdings 3'
p1143
sg15
I400
sg16
g12
sg17
g12
sg18
Vc:\u005cwindows\u005cfonts\u005cwingdng3.ttf
p1144
sg20
g21
sbag1
(g8
g3
NtRp1145
(dp1146
g11
g28
sg13
S'Qualcomm Office'
p1147
sg15
I200
sg16
g12
sg17
g12
sg18
VC:\u005cWindows\u005cFonts\u005cQualcommOffice-LightItalic.ttf
p1148
sg20
g21
sbag1
(g8
g3
NtRp1149
(dp1150
g11
g12
sg13
S'IrisUPC'
p1151
sg15
I700
sg16
g12
sg17
g12
sg18
VC:\u005cWindows\u005cFonts\u005cupcib.ttf
p1152
sg20
g21
sbag1
(g8
g3
NtRp1153
(dp1154
g11
g12
sg13
S'Calisto MT'
p1155
sg15
I700
sg16
g12
sg17
g12
sg18
Vc:\u005cwindows\u005cfonts\u005ccalistb.ttf
p1156
sg20
g21
sbag1
(g8
g3
NtRp1157
(dp1158
g11
g12
sg13
S'Juice ITC'
p1159
sg15
I400
sg16
g12
sg17
g12
sg18
VC:\u005cWindows\u005cFonts\u005cJUICE___.TTF
p1160
sg20
g21
sbag1
(g8
g3
NtRp1161
(dp1162
g11
g12
sg13
S'Shruti'
p1163
sg15
I400
sg16
g12
sg17
g12
sg18
VC:\u005cWindows\u005cFonts\u005cshruti.ttf
p1164
sg20
g21
sbag1
(g8
g3
NtRp1165
(dp1166
g11
g28
sg13
S'Calisto MT'
p1167
sg15
I400
sg16
g12
sg17
g12
sg18
Vc:\u005cwindows\u005cfonts\u005ccalisti.ttf
p1168
sg20
g21
sbag1
(g8
g3
NtRp1169
(dp1170
g11
g12
sg13
S'Angsana New'
p1171
sg15
I400
sg16
g12
sg17
g12
sg18
VC:\u005cWindows\u005cFonts\u005cangsa.ttf
p1172
sg20
g21
sbag1
(g8
g3
NtRp1173
(dp1174
g11
g12
sg13
S'Bradley Hand ITC'
p1175
sg15
I400
sg16
g12
sg17
g12
sg18
VC:\u005cWindows\u005cFonts\u005cBRADHITC.TTF
p1176
sg20
g21
sbag1
(g8
g3
NtRp1177
(dp1178
g11
g12
sg13
S'Viner Hand ITC'
p1179
sg15
I400
sg16
g12
sg17
g12
sg18
Vc:\u005cwindows\u005cfonts\u005cvineritc.ttf
p1180
sg20
g21
sbag1
(g8
g3
NtRp1181
(dp1182
g11
g12
sg13
S'Jokerman'
p1183
sg15
I400
sg16
g12
sg17
g12
sg18
Vc:\u005cwindows\u005cfonts\u005cjokerman.ttf
p1184
sg20
g21
sbag1
(g8
g3
NtRp1185
(dp1186
g11
g28
sg13
S'Lucida Handwriting'
p1187
sg15
I400
sg16
g12
sg17
g12
sg18
VC:\u005cWindows\u005cFonts\u005cLHANDW.TTF
p1188
sg20
g21
sbag1
(g8
g3
NtRp1189
(dp1190
g11
g12
sg13
S'Segoe UI'
p1191
sg15
I700
sg16
g12
sg17
g12
sg18
VC:\u005cWindows\u005cFonts\u005csegoeuib.ttf
p1192
sg20
g21
sbag1
(g8
g3
NtRp1193
(dp1194
g11
g12
sg13
S'Qualcomm Office'
p1195
sg15
I400
sg16
g12
sg17
g12
sg18
Vc:\u005cwindows\u005cfonts\u005cqualcommoffice-thin.ttf
p1196
sg20
g21
sbag1
(g8
g3
NtRp1197
(dp1198
g11
g28
sg13
S'Candara'
p1199
sg15
I700
sg16
g12
sg17
g12
sg18
VC:\u005cWindows\u005cFonts\u005cCandaraz.ttf
p1200
sg20
g21
sbag1
(g8
g3
NtRp1201
(dp1202
g11
g12
sg13
S'Blackadder ITC'
p1203
sg15
I900
sg16
g12
sg17
g12
sg18
Vc:\u005cwindows\u005cfonts\u005citcblkad.ttf
p1204
sg20
g21
sbag1
(g8
g3
NtRp1205
(dp1206
g11
g28
sg13
S'Bodoni MT'
p1207
sg15
I700
sg16
g114
sg17
g12
sg18
VC:\u005cWindows\u005cFonts\u005cBOD_CBI.TTF
p1208
sg20
g21
sbag1
(g8
g3
NtRp1209
(dp1210
g11
g12
sg13
S'Baskerville Old Face'
p1211
sg15
I400
sg16
g12
sg17
g12
sg18
Vc:\u005cwindows\u005cfonts\u005cbaskvill.ttf
p1212
sg20
g21
sbag1
(g8
g3
NtRp1213
(dp1214
g11
g12
sg13
S'Lucida Fax'
p1215
sg15
I400
sg16
g12
sg17
g12
sg18
VC:\u005cWindows\u005cFonts\u005cLFAX.TTF
p1216
sg20
g21
sbag1
(g8
g3
NtRp1217
(dp1218
g11
g12
sg13
S'Aparajita'
p1219
sg15
I700
sg16
g12
sg17
g12
sg18
VC:\u005cWindows\u005cFonts\u005caparajb.ttf
p1220
sg20
g21
sbag1
(g8
g3
NtRp1221
(dp1222
g11
g12
sg13
S'Segoe UI'
p1223
sg15
I400
sg16
g12
sg17
g12
sg18
VC:\u005cWindows\u005cFonts\u005cSEGOEUISL.TTF
p1224
sg20
g21
sbag1
(g8
g3
NtRp1225
(dp1226
g11
g28
sg13
S'Rockwell'
p1227
sg15
I400
sg16
g12
sg17
g12
sg18
Vc:\u005cwindows\u005cfonts\u005crocki.ttf
p1228
sg20
g21
sbag1
(g8
g3
NtRp1229
(dp1230
g11
g28
sg13
S'Book Antiqua'
p1231
sg15
I400
sg16
g12
sg17
g12
sg18
VC:\u005cWindows\u005cFonts\u005cANTQUAI.TTF
p1232
sg20
g21
sbag1
(g8
g3
NtRp1233
(dp1234
g11
g12
sg13
S'Book Antiqua'
p1235
sg15
I400
sg16
g12
sg17
g12
sg18
Vc:\u005cwindows\u005cfonts\u005cbkant.ttf
p1236
sg20
g21
sbag1
(g8
g3
NtRp1237
(dp1238
g11
g28
sg13
S'Bodoni MT'
p1239
sg15
I400
sg16
g12
sg17
g12
sg18
VC:\u005cWindows\u005cFonts\u005cBOD_I.TTF
p1240
sg20
g21
sbag1
(g8
g3
NtRp1241
(dp1242
g11
g12
sg13
S'Lucida Sans'
p1243
sg15
I400
sg16
g12
sg17
g12
sg18
Vc:\u005cwindows\u005cfonts\u005clsans.ttf
p1244
sg20
g21
sbag1
(g8
g3
NtRp1245
(dp1246
g11
g12
sg13
S'AngsanaUPC'
p1247
sg15
I400
sg16
g12
sg17
g12
sg18
VC:\u005cWindows\u005cFonts\u005cangsau.ttf
p1248
sg20
g21
sbag1
(g8
g3
NtRp1249
(dp1250
g11
g12
sg13
S'Garamond'
p1251
sg15
I700
sg16
g12
sg17
g12
sg18
Vc:\u005cwindows\u005cfonts\u005cgarabd.ttf
p1252
sg20
g21
sbag1
(g8
g3
NtRp1253
(dp1254
g11
g12
sg13
S'Courier New'
p1255
sg15
I700
sg16
g12
sg17
g12
sg18
VC:\u005cWindows\u005cFonts\u005ccourbd.ttf
p1256
sg20
g21
sbag1
(g8
g3
NtRp1257
(dp1258
g11
g12
sg13
S'Snap ITC'
p1259
sg15
I400
sg16
g12
sg17
g12
sg18
VC:\u005cWindows\u005cFonts\u005cSNAP____.TTF
p1260
sg20
g21
sbag1
(g8
g3
NtRp1261
(dp1262
g11
g12
sg13
S'Gisha'
p1263
sg15
I400
sg16
g12
sg17
g12
sg18
Vc:\u005cwindows\u005cfonts\u005cgisha.ttf
p1264
sg20
g21
sbag1
(g8
g3
NtRp1265
(dp1266
g11
g12
sg13
S'Calisto MT'
p1267
sg15
I400
sg16
g12
sg17
g12
sg18
Vc:\u005cwindows\u005cfonts\u005ccalist.ttf
p1268
sg20
g21
sbag1
(g8
g3
NtRp1269
(dp1270
g11
g12
sg13
S'Curlz MT'
p1271
sg15
I400
sg16
g12
sg17
g12
sg18
Vc:\u005cwindows\u005cfonts\u005ccurlz___.ttf
p1272
sg20
g21
sbag1
(g8
g3
NtRp1273
(dp1274
g11
g28
sg13
S'Arial'
p1275
sg15
I700
sg16
g12
sg17
g12
sg18
Vc:\u005cwindows\u005cfonts\u005carialbi.ttf
p1276
sg20
g21
sbag1
(g8
g3
NtRp1277
(dp1278
g11
g28
sg13
S'Qualcomm Office'
p1279
sg15
I400
sg16
g12
sg17
g12
sg18
Vc:\u005cwindows\u005cfonts\u005cqualcommoffice-regularitalic.ttf
p1280
sg20
g21
sbag1
(g8
g3
NtRp1281
(dp1282
g11
g28
sg13
S'Trebuchet MS'
p1283
sg15
I400
sg16
g12
sg17
g12
sg18
Vc:\u005cwindows\u005cfonts\u005ctrebucit.ttf
p1284
sg20
g21
sbag1
(g8
g3
NtRp1285
(dp1286
g11
g28
sg13
S'Bookman Old Style'
p1287
sg15
I400
sg16
g12
sg17
g12
sg18
VC:\u005cWindows\u005cFonts\u005cBOOKOSI.TTF
p1288
sg20
g21
sbag1
(g8
g3
NtRp1289
(dp1290
g11
g12
sg13
S'Britannic Bold'
p1291
sg15
I700
sg16
g12
sg17
g12
sg18
Vc:\u005cwindows\u005cfonts\u005cbritanic.ttf
p1292
sg20
g21
sbag1
(g8
g3
NtRp1293
(dp1294
g11
g12
sg13
S'Rockwell'
p1295
sg15
I700
sg16
g12
sg17
g12
sg18
VC:\u005cWindows\u005cFonts\u005cROCKB.TTF
p1296
sg20
g21
sbag1
(g8
g3
NtRp1297
(dp1298
g11
g12
sg13
S'Perpetua Titling MT'
p1299
sg15
I200
sg16
g12
sg17
g12
sg18
Vc:\u005cwindows\u005cfonts\u005cpertili.ttf
p1300
sg20
g21
sbag1
(g8
g3
NtRp1301
(dp1302
g11
g12
sg13
S'Californian FB'
p1303
sg15
I700
sg16
g12
sg17
g12
sg18
VC:\u005cWindows\u005cFonts\u005cCALIFB.TTF
p1304
sg20
g21
sbag1
(g8
g3
NtRp1305
(dp1306
g11
g12
sg13
S'SimSun-ExtB'
p1307
sg15
I400
sg16
g12
sg17
g12
sg18
Vc:\u005cwindows\u005cfonts\u005csimsunb.ttf
p1308
sg20
g21
sbag1
(g8
g3
NtRp1309
(dp1310
g11
g12
sg13
S'Tw Cen MT Condensed Extra Bold'
p1311
sg15
I700
sg16
g114
sg17
g12
sg18
VC:\u005cWindows\u005cFonts\u005cTCCEB.TTF
p1312
sg20
g21
sbag1
(g8
g3
NtRp1313
(dp1314
g11
g12
sg13
S'MS Reference Sans Serif'
p1315
sg15
I400
sg16
g12
sg17
g12
sg18
VC:\u005cWindows\u005cFonts\u005cREFSAN.TTF
p1316
sg20
g21
sbag1
(g8
g3
NtRp1317
(dp1318
g11
g12
sg13
S'Traditional Arabic'
p1319
sg15
I400
sg16
g12
sg17
g12
sg18
VC:\u005cWindows\u005cFonts\u005ctrado.ttf
p1320
sg20
g21
sbag1
(g8
g3
NtRp1321
(dp1322
g11
g12
sg13
S'Bauhaus 93'
p1323
sg15
I400
sg16
g12
sg17
g12
sg18
Vc:\u005cwindows\u005cfonts\u005cbauhs93.ttf
p1324
sg20
g21
sbag1
(g8
g3
NtRp1325
(dp1326
g11
g28
sg13
S'Lucida Calligraphy'
p1327
sg15
I400
sg16
g12
sg17
g12
sg18
Vc:\u005cwindows\u005cfonts\u005clcallig.ttf
p1328
sg20
g21
sbag1
(g8
g3
NtRp1329
(dp1330
g11
g12
sg13
S'Gadugi'
p1331
sg15
I700
sg16
g12
sg17
g12
sg18
VC:\u005cWindows\u005cFonts\u005cGADUGIB.TTF
p1332
sg20
g21
sbag1
(g8
g3
NtRp1333
(dp1334
g11
g12
sg13
S'Colonna MT'
p1335
sg15
I400
sg16
g12
sg17
g12
sg18
Vc:\u005cwindows\u005cfonts\u005ccolonna.ttf
p1336
sg20
g21
sbag1
(g8
g3
NtRp1337
(dp1338
g11
g12
sg13
S'Microsoft Uighur'
p1339
sg15
I700
sg16
g12
sg17
g12
sg18
Vc:\u005cwindows\u005cfonts\u005cmsuighub.ttf
p1340
sg20
g21
sbag1
(g8
g3
NtRp1341
(dp1342
g11
g28
sg13
S'Times New Roman'
p1343
sg15
I700
sg16
g12
sg17
g12
sg18
Vc:\u005cwindows\u005cfonts\u005ctimesbi.ttf
p1344
sg20
g21
sbag1
(g8
g3
NtRp1345
(dp1346
g11
g12
sg13
S'Comic Sans MS'
p1347
sg15
I700
sg16
g12
sg17
g12
sg18
Vc:\u005cwindows\u005cfonts\u005ccomicbd.ttf
p1348
sg20
g21
sbag1
(g8
g3
NtRp1349
(dp1350
g11
g12
sg13
S'Candara'
p1351
sg15
I700
sg16
g12
sg17
g12
sg18
Vc:\u005cwindows\u005cfonts\u005ccandarab.ttf
p1352
sg20
g21
sbag1
(g8
g3
NtRp1353
(dp1354
g11
g12
sg13
S'Modern No. 20'
p1355
sg15
I400
sg16
g12
sg17
g12
sg18
VC:\u005cWindows\u005cFonts\u005cMOD20.TTF
p1356
sg20
g21
sbag1
(g8
g3
NtRp1357
(dp1358
g11
g12
sg13
S'Ebrima'
p1359
sg15
I400
sg16
g12
sg17
g12
sg18
VC:\u005cWindows\u005cFonts\u005cebrima.ttf
p1360
sg20
g21
sbag1
(g8
g3
NtRp1361
(dp1362
g11
g12
sg13
S'Lucida Sans Typewriter'
p1363
sg15
I400
sg16
g12
sg17
g12
sg18
VC:\u005cWindows\u005cFonts\u005cLTYPE.TTF
p1364
sg20
g21
sbag1
(g8
g3
NtRp1365
(dp1366
g11
g230
sg13
S'Lucida Sans Typewriter'
p1367
sg15
I400
sg16
g12
sg17
g12
sg18
Vc:\u005cwindows\u005cfonts\u005cltypeo.ttf
p1368
sg20
g21
sbag1
(g8
g3
NtRp1369
(dp1370
g11
g28
sg13
S'Georgia'
p1371
sg15
I700
sg16
g12
sg17
g12
sg18
VC:\u005cWindows\u005cFonts\u005cgeorgiaz.ttf
p1372
sg20
g21
sbag1
(g8
g3
NtRp1373
(dp1374
g11
g12
sg13
S'Eras Light ITC'
p1375
sg15
I200
sg16
g12
sg17
g12
sg18
VC:\u005cWindows\u005cFonts\u005cERASLGHT.TTF
p1376
sg20
g21
sbag1
(g8
g3
NtRp1377
(dp1378
g11
g12
sg13
S'Tw Cen MT'
p1379
sg15
I400
sg16
g12
sg17
g12
sg18
VC:\u005cWindows\u005cFonts\u005cTCM_____.TTF
p1380
sg20
g21
sbag1
(g8
g3
NtRp1381
(dp1382
g11
g12
sg13
S'Goudy Stout'
p1383
sg15
I400
sg16
g12
sg17
g12
sg18
Vc:\u005cwindows\u005cfonts\u005cgoudysto.ttf
p1384
sg20
g21
sbag1
(g8
g3
NtRp1385
(dp1386
g11
g28
sg13
S'Calibri'
p1387
sg15
I200
sg16
g12
sg17
g12
sg18
Vc:\u005cwindows\u005cfonts\u005ccalibrili.ttf
p1388
sg20
g21
sbag1
(g8
g3
NtRp1389
(dp1390
g11
g12
sg13
S'David'
p1391
sg15
I400
sg16
g12
sg17
g12
sg18
VC:\u005cWindows\u005cFonts\u005cdavid.ttf
p1392
sg20
g21
sbag1
(g8
g3
NtRp1393
(dp1394
g11
g12
sg13
S'Gigi'
p1395
sg15
I400
sg16
g12
sg17
g12
sg18
VC:\u005cWindows\u005cFonts\u005cGIGI.TTF
p1396
sg20
g21
sbag1
(g8
g3
NtRp1397
(dp1398
g11
g12
sg13
S'Book Antiqua'
p1399
sg15
I700
sg16
g12
sg17
g12
sg18
Vc:\u005cwindows\u005cfonts\u005cantquab.ttf
p1400
sg20
g21
sbag1
(g8
g3
NtRp1401
(dp1402
g11
g12
sg13
S'Rockwell Condensed'
p1403
sg15
I700
sg16
g114
sg17
g12
sg18
VC:\u005cWindows\u005cFonts\u005cROCCB___.TTF
p1404
sg20
g21
sbag1
(g8
g3
NtRp1405
(dp1406
g11
g12
sg13
S'Californian FB'
p1407
sg15
I400
sg16
g12
sg17
g12
sg18
VC:\u005cWindows\u005cFonts\u005cCALIFR.TTF
p1408
sg20
g21
sbag1
(g8
g3
NtRp1409
(dp1410
g11
g28
sg13
S'Candara'
p1411
sg15
I400
sg16
g12
sg17
g12
sg18
Vc:\u005cwindows\u005cfonts\u005ccandarai.ttf
p1412
sg20
g21
sbag1
(g8
g3
NtRp1413
(dp1414
g11
g12
sg13
S'Franklin Gothic Book'
p1415
sg15
I400
sg16
g12
sg17
g12
sg18
Vc:\u005cwindows\u005cfonts\u005cfrabk.ttf
p1416
sg20
g21
sbag1
(g8
g3
NtRp1417
(dp1418
g11
g12
sg13
S'Aparajita'
p1419
sg15
I400
sg16
g12
sg17
g12
sg18
Vc:\u005cwindows\u005cfonts\u005caparaj.ttf
p1420
sg20
g21
sbag1
(g8
g3
NtRp1421
(dp1422
g11
g12
sg13
S'Goudy Old Style'
p1423
sg15
I700
sg16
g12
sg17
g12
sg18
Vc:\u005cwindows\u005cfonts\u005cgoudosb.ttf
p1424
sg20
g21
sbag1
(g8
g3
NtRp1425
(dp1426
g11
g12
sg13
S'Eras Light ITC'
p1427
sg15
I200
sg16
g12
sg17
g12
sg18
Vc:\u005cwindows\u005cfonts\u005ceraslght.ttf
p1428
sg20
g21
sbag1
(g8
g3
NtRp1429
(dp1430
g11
g28
sg13
S'Tw Cen MT'
p1431
sg15
I700
sg16
g12
sg17
g12
sg18
VC:\u005cWindows\u005cFonts\u005cTCBI____.TTF
p1432
sg20
g21
sbag1
(g8
g3
NtRp1433
(dp1434
g11
g12
sg13
S'Cooper Black'
p1435
sg15
I900
sg16
g12
sg17
g12
sg18
VC:\u005cWindows\u005cFonts\u005cCOOPBL.TTF
p1436
sg20
g21
sbag1
(g8
g3
NtRp1437
(dp1438
g11
g12
sg13
S'Perpetua Titling MT'
p1439
sg15
I700
sg16
g12
sg17
g12
sg18
Vc:\u005cwindows\u005cfonts\u005cpertibd.ttf
p1440
sg20
g21
sbag1
(g8
g3
NtRp1441
(dp1442
g11
g28
sg13
S'Utsaah'
p1443
sg15
I700
sg16
g12
sg17
g12
sg18
VC:\u005cWindows\u005cFonts\u005cutsaahbi.ttf
p1444
sg20
g21
sbag1
(g8
g3
NtRp1445
(dp1446
g11
g28
sg13
S'Elephant'
p1447
sg15
I400
sg16
g12
sg17
g12
sg18
Vc:\u005cwindows\u005cfonts\u005celephnti.ttf
p1448
sg20
g21
sbag1
(g8
g3
NtRp1449
(dp1450
g11
g28
sg13
S'Times New Roman'
p1451
sg15
I500
sg16
g12
sg17
g12
sg18
VC:\u005cWindows\u005cFonts\u005ctimesi.ttf
p1452
sg20
g21
sbag1
(g8
g3
NtRp1453
(dp1454
g11
g28
sg13
S'Century Gothic'
p1455
sg15
I700
sg16
g12
sg17
g12
sg18
Vc:\u005cwindows\u005cfonts\u005cgothicbi.ttf
p1456
sg20
g21
sbag1
(g8
g3
NtRp1457
(dp1458
g11
g12
sg13
S'Gabriola'
p1459
sg15
I400
sg16
g12
sg17
g12
sg18
VC:\u005cWindows\u005cFonts\u005cGabriola.ttf
p1460
sg20
g21
sbag1
(g8
g3
NtRp1461
(dp1462
g11
g12
sg13
S'Harrington'
p1463
sg15
I400
sg16
g12
sg17
g12
sg18
Vc:\u005cwindows\u005cfonts\u005charngton.ttf
p1464
sg20
g21
sbag1
(g8
g3
NtRp1465
(dp1466
g11
g12
sg13
S'Gill Sans Ultra Bold'
p1467
sg15
I700
sg16
g12
sg17
g12
sg18
VC:\u005cWindows\u005cFonts\u005cGILSANUB.TTF
p1468
sg20
g21
sbag1
(g8
g3
NtRp1469
(dp1470
g11
g12
sg13
S'Tw Cen MT'
p1471
sg15
I700
sg16
g12
sg17
g12
sg18
VC:\u005cWindows\u005cFonts\u005cTCB_____.TTF
p1472
sg20
g21
sbag1
(g8
g3
NtRp1473
(dp1474
g11
g12
sg13
S'Iskoola Pota'
p1475
sg15
I400
sg16
g12
sg17
g12
sg18
Vc:\u005cwindows\u005cfonts\u005ciskpota.ttf
p1476
sg20
g21
sbag1
(g8
g3
NtRp1477
(dp1478
g11
g12
sg13
S'Bodoni MT'
p1479
sg15
I700
sg16
g114
sg17
g12
sg18
VC:\u005cWindows\u005cFonts\u005cBOD_CB.TTF
p1480
sg20
g21
sbag1
(g8
g3
NtRp1481
(dp1482
g11
g12
sg13
S'Engravers MT'
p1483
sg15
I400
sg16
g12
sg17
g12
sg18
VC:\u005cWindows\u005cFonts\u005cENGR.TTF
p1484
sg20
g21
sbag1
(g8
g3
NtRp1485
(dp1486
g11
g28
sg13
S'Candara'
p1487
sg15
I400
sg16
g12
sg17
g12
sg18
VC:\u005cWindows\u005cFonts\u005cCandarai.ttf
p1488
sg20
g21
sbag1
(g8
g3
NtRp1489
(dp1490
g11
g28
sg13
S'Garamond'
p1491
sg15
I400
sg16
g12
sg17
g12
sg18
Vc:\u005cwindows\u005cfonts\u005cgarait.ttf
p1492
sg20
g21
sbag1
(g8
g3
NtRp1493
(dp1494
g11
g12
sg13
S'Gill Sans MT'
p1495
sg15
I700
sg16
g12
sg17
g12
sg18
Vc:\u005cwindows\u005cfonts\u005cgilb____.ttf
p1496
sg20
g21
sbag1
(g8
g3
NtRp1497
(dp1498
g11
g12
sg13
S'Century'
p1499
sg15
I400
sg16
g12
sg17
g12
sg18
Vc:\u005cwindows\u005cfonts\u005ccentury.ttf
p1500
sg20
g21
sbag1
(g8
g3
NtRp1501
(dp1502
g11
g28
sg13
S'Aparajita'
p1503
sg15
I400
sg16
g12
sg17
g12
sg18
Vc:\u005cwindows\u005cfonts\u005caparaji.ttf
p1504
sg20
g21
sbag1
(g8
g3
NtRp1505
(dp1506
g11
g28
sg13
S'Franklin Gothic Book'
p1507
sg15
I400
sg16
g12
sg17
g12
sg18
Vc:\u005cwindows\u005cfonts\u005cfrabkit.ttf
p1508
sg20
g21
sbag1
(g8
g3
NtRp1509
(dp1510
g11
g12
sg13
S'Mongolian Baiti'
p1511
sg15
I400
sg16
g12
sg17
g12
sg18
VC:\u005cWindows\u005cFonts\u005cmonbaiti.ttf
p1512
sg20
g21
sbag1
(g8
g3
NtRp1513
(dp1514
g11
g12
sg13
S'Arial'
p1515
sg15
I700
sg16
g114
sg17
g12
sg18
Vc:\u005cwindows\u005cfonts\u005carialnb.ttf
p1516
sg20
g21
sbag1
(g8
g3
NtRp1517
(dp1518
g11
g12
sg13
S'MS Outlook'
p1519
sg15
I400
sg16
g12
sg17
g12
sg18
Vc:\u005cwindows\u005cfonts\u005coutlook.ttf
p1520
sg20
g21
sbag1
(g8
g3
NtRp1521
(dp1522
g11
g28
sg13
S'Lucida Fax'
p1523
sg15
I700
sg16
g12
sg17
g12
sg18
Vc:\u005cwindows\u005cfonts\u005clfaxdi.ttf
p1524
sg20
g21
sbag1
(g8
g3
NtRp1525
(dp1526
g11
g12
sg13
S'Candara'
p1527
sg15
I400
sg16
g12
sg17
g12
sg18
Vc:\u005cwindows\u005cfonts\u005ccandara.ttf
p1528
sg20
g21
sbag1
(g8
g3
NtRp1529
(dp1530
g11
g12
sg13
S'Copperplate Gothic Light'
p1531
sg15
I200
sg16
g12
sg17
g12
sg18
VC:\u005cWindows\u005cFonts\u005cCOPRGTL.TTF
p1532
sg20
g21
sbag1
(g8
g3
NtRp1533
(dp1534
g11
g12
sg13
S'Perpetua'
p1535
sg15
I400
sg16
g12
sg17
g12
sg18
VC:\u005cWindows\u005cFonts\u005cPER_____.TTF
p1536
sg20
g21
sbag1
(g8
g3
NtRp1537
(dp1538
g11
g12
sg13
S'Vijaya'
p1539
sg15
I400
sg16
g12
sg17
g12
sg18
Vc:\u005cwindows\u005cfonts\u005cvijaya.ttf
p1540
sg20
g21
sbag1
(g8
g3
NtRp1541
(dp1542
g11
g12
sg13
S'Arial'
p1543
sg15
I400
sg16
g114
sg17
g12
sg18
Vc:\u005cwindows\u005cfonts\u005carialn.ttf
p1544
sg20
g21
sbag1
(g8
g3
NtRp1545
(dp1546
g11
g12
sg13
S'Miriam'
p1547
sg15
I400
sg16
g12
sg17
g12
sg18
Vc:\u005cwindows\u005cfonts\u005cmriam.ttf
p1548
sg20
g21
sbag1
(g8
g3
NtRp1549
(dp1550
g11
g28
sg13
S'Cordia New'
p1551
sg15
I400
sg16
g12
sg17
g12
sg18
VC:\u005cWindows\u005cFonts\u005ccordiai.ttf
p1552
sg20
g21
sbag1
(g8
g3
NtRp1553
(dp1554
g11
g12
sg13
S'Segoe UI'
p1555
sg15
I400
sg16
g12
sg17
g12
sg18
VC:\u005cWindows\u005cFonts\u005csegoeuil.ttf
p1556
sg20
g21
sbag1
(g8
g3
NtRp1557
(dp1558
g11
g12
sg13
S'Lucida Fax'
p1559
sg15
I400
sg16
g12
sg17
g12
sg18
Vc:\u005cwindows\u005cfonts\u005clfax.ttf
p1560
sg20
g21
sbag1
(g8
g3
NtRp1561
(dp1562
g11
g12
sg13
S'Tunga'
p1563
sg15
I700
sg16
g12
sg17
g12
sg18
VC:\u005cWindows\u005cFonts\u005ctungab.ttf
p1564
sg20
g21
sbag1
(g8
g3
NtRp1565
(dp1566
g11
g28
sg13
S'Gill Sans MT'
p1567
sg15
I400
sg16
g12
sg17
g12
sg18
VC:\u005cWindows\u005cFonts\u005cGILI____.TTF
p1568
sg20
g21
sbag1
(g8
g3
NtRp1569
(dp1570
g11
g12
sg13
S'Sakkal Majalla'
p1571
sg15
I700
sg16
g12
sg17
g12
sg18
VC:\u005cWindows\u005cFonts\u005cmajallab.ttf
p1572
sg20
g21
sbag1
(g8
g3
NtRp1573
(dp1574
g11
g28
sg13
S'Rage Italic'
p1575
sg15
I400
sg16
g12
sg17
g12
sg18
VC:\u005cWindows\u005cFonts\u005cRAGE.TTF
p1576
sg20
g21
sbag1
(g8
g3
NtRp1577
(dp1578
g11
g12
sg13
S'Haettenschweiler'
p1579
sg15
I400
sg16
g12
sg17
g12
sg18
Vc:\u005cwindows\u005cfonts\u005chatten.ttf
p1580
sg20
g21
sbag1
(g8
g3
NtRp1581
(dp1582
g11
g28
sg13
S'Perpetua'
p1583
sg15
I700
sg16
g12
sg17
g12
sg18
VC:\u005cWindows\u005cFonts\u005cPERBI___.TTF
p1584
sg20
g21
sbag1
(g8
g3
NtRp1585
(dp1586
g11
g12
sg13
S'FrankRuehl'
p1587
sg15
I400
sg16
g12
sg17
g12
sg18
Vc:\u005cwindows\u005cfonts\u005cfrank.ttf
p1588
sg20
g21
sbag1
(g8
g3
NtRp1589
(dp1590
g11
g12
sg13
S'Shonar Bangla'
p1591
sg15
I400
sg16
g12
sg17
g12
sg18
VC:\u005cWindows\u005cFonts\u005cShonar.ttf
p1592
sg20
g21
sbag1
(g8
g3
NtRp1593
(dp1594
g11
g28
sg13
S'Qualcomm Office'
p1595
sg15
I700
sg16
g12
sg17
g12
sg18
Vc:\u005cwindows\u005cfonts\u005cqualcommoffice-bolditalic.ttf
p1596
sg20
g21
sbag1
(g8
g3
NtRp1597
(dp1598
g11
g12
sg13
S'Berlin Sans FB'
p1599
sg15
I400
sg16
g12
sg17
g12
sg18
Vc:\u005cwindows\u005cfonts\u005cbrlnsr.ttf
p1600
sg20
g21
sbag1
(g8
g3
NtRp1601
(dp1602
g11
g12
sg13
S'Wide Latin'
p1603
sg15
I400
sg16
Vexpanded
p1604
sg17
g12
sg18
VC:\u005cWindows\u005cFonts\u005cLATINWD.TTF
p1605
sg20
g21
sbag1
(g8
g3
NtRp1606
(dp1607
g11
g12
sg13
S'Bookshelf Symbol 7'
p1608
sg15
I400
sg16
g12
sg17
g12
sg18
VC:\u005cWindows\u005cFonts\u005cBSSYM7.TTF
p1609
sg20
g21
sbag1
(g8
g3
NtRp1610
(dp1611
g11
g12
sg13
S'Bell MT'
p1612
sg15
I400
sg16
g12
sg17
g12
sg18
Vc:\u005cwindows\u005cfonts\u005cbell.ttf
p1613
sg20
g21
sbag1
(g8
g3
NtRp1614
(dp1615
g11
g28
sg13
S'Corbel'
p1616
sg15
I700
sg16
g12
sg17
g12
sg18
VC:\u005cWindows\u005cFonts\u005ccorbelz.ttf
p1617
sg20
g21
sbag1
(g8
g3
NtRp1618
(dp1619
g11
g12
sg13
S'Forte'
p1620
sg15
I400
sg16
g12
sg17
g12
sg18
VC:\u005cWindows\u005cFonts\u005cFORTE.TTF
p1621
sg20
g21
sbag1
(g8
g3
NtRp1622
(dp1623
g11
g12
sg13
S'Bodoni MT'
p1624
sg15
I700
sg16
g12
sg17
g12
sg18
VC:\u005cWindows\u005cFonts\u005cBOD_B.TTF
p1625
sg20
g21
sbag1
(g8
g3
NtRp1626
(dp1627
g11
g12
sg13
S'Segoe Script'
p1628
sg15
I700
sg16
g12
sg17
g12
sg18
Vc:\u005cwindows\u005cfonts\u005csegoescb.ttf
p1629
sg20
g21
sbag1
(g8
g3
NtRp1630
(dp1631
g11
g28
sg13
S'Franklin Gothic Heavy'
p1632
sg15
I800
sg16
g12
sg17
g12
sg18
VC:\u005cWindows\u005cFonts\u005cFRAHVIT.TTF
p1633
sg20
g21
sbag1
(g8
g3
NtRp1634
(dp1635
g11
g12
sg13
S'Comic Sans MS'
p1636
sg15
I400
sg16
g12
sg17
g12
sg18
VC:\u005cWindows\u005cFonts\u005ccomic.ttf
p1637
sg20
g21
sbag1
(g8
g3
NtRp1638
(dp1639
g11
g12
sg13
S'Tw Cen MT Condensed'
p1640
sg15
I400
sg16
g114
sg17
g12
sg18
VC:\u005cWindows\u005cFonts\u005cTCCM____.TTF
p1641
sg20
g21
sbag1
(g8
g3
NtRp1642
(dp1643
g11
g12
sg13
S'Juice ITC'
p1644
sg15
I400
sg16
g12
sg17
g12
sg18
Vc:\u005cwindows\u005cfonts\u005cjuice___.ttf
p1645
sg20
g21
sbag1
(g8
g3
NtRp1646
(dp1647
g11
g12
sg13
S'French Script MT'
p1648
sg15
I400
sg16
g12
sg17
g12
sg18
VC:\u005cWindows\u005cFonts\u005cFRSCRIPT.TTF
p1649
sg20
g21
sbag1
(g8
g3
NtRp1650
(dp1651
g11
g12
sg13
S'Century Schoolbook'
p1652
sg15
I700
sg16
g12
sg17
g12
sg18
VC:\u005cWindows\u005cFonts\u005cSCHLBKB.TTF
p1653
sg20
g21
sbag1
(g8
g3
NtRp1654
(dp1655
g11
g12
sg13
S'Mistral'
p1656
sg15
I400
sg16
g12
sg17
g12
sg18
VC:\u005cWindows\u005cFonts\u005cMISTRAL.TTF
p1657
sg20
g21
sbag1
(g8
g3
NtRp1658
(dp1659
g11
g12
sg13
S'Franklin Gothic Medium Cond'
p1660
sg15
I500
sg16
g114
sg17
g12
sg18
Vc:\u005cwindows\u005cfonts\u005cframdcn.ttf
p1661
sg20
g21
sbag1
(g8
g3
NtRp1662
(dp1663
g11
g12
sg13
S'Garamond'
p1664
sg15
I700
sg16
g12
sg17
g12
sg18
VC:\u005cWindows\u005cFonts\u005cGARABD.TTF
p1665
sg20
g21
sbag1
(g8
g3
NtRp1666
(dp1667
g11
g28
sg13
S'Franklin Gothic Book'
p1668
sg15
I400
sg16
g12
sg17
g12
sg18
VC:\u005cWindows\u005cFonts\u005cFRABKIT.TTF
p1669
sg20
g21
sbag1
(g8
g3
NtRp1670
(dp1671
g11
g12
sg13
S'JasmineUPC'
p1672
sg15
I400
sg16
g12
sg17
g12
sg18
VC:\u005cWindows\u005cFonts\u005cupcjl.ttf
p1673
sg20
g21
sbag1
(g8
g3
NtRp1674
(dp1675
g11
g12
sg13
S'Castellar'
p1676
sg15
I400
sg16
g12
sg17
g12
sg18
VC:\u005cWindows\u005cFonts\u005cCASTELAR.TTF
p1677
sg20
g21
sbag1
(g8
g3
NtRp1678
(dp1679
g11
g12
sg13
S'Palatino Linotype'
p1680
sg15
I700
sg16
g12
sg17
g12
sg18
Vc:\u005cwindows\u005cfonts\u005cpalab.ttf
p1681
sg20
g21
sbag1
(g8
g3
NtRp1682
(dp1683
g11
g28
sg13
S'Brush Script MT'
p1684
sg15
I400
sg16
g12
sg17
g12
sg18
Vc:\u005cwindows\u005cfonts\u005cbrushsci.ttf
p1685
sg20
g21
sbag1
(g8
g3
NtRp1686
(dp1687
g11
g28
sg13
S'Lucida Fax'
p1688
sg15
I400
sg16
g12
sg17
g12
sg18
VC:\u005cWindows\u005cFonts\u005cLFAXI.TTF
p1689
sg20
g21
sbag1
(g8
g3
NtRp1690
(dp1691
g11
g12
sg13
S'Freestyle Script'
p1692
sg15
I400
sg16
g12
sg17
g12
sg18
Vc:\u005cwindows\u005cfonts\u005cfreescpt.ttf
p1693
sg20
g21
sbag1
(g8
g3
NtRp1694
(dp1695
g11
g28
sg13
S'Bodoni MT'
p1696
sg15
I400
sg16
g114
sg17
g12
sg18
Vc:\u005cwindows\u005cfonts\u005cbod_ci.ttf
p1697
sg20
g21
sbag1
(g8
g3
NtRp1698
(dp1699
g11
g12
sg13
S'Bell MT'
p1700
sg15
I400
sg16
g12
sg17
g12
sg18
VC:\u005cWindows\u005cFonts\u005cBELL.TTF
p1701
sg20
g21
sbag1
(g8
g3
NtRp1702
(dp1703
g11
g12
sg13
S'Gill Sans Ultra Bold'
p1704
sg15
I700
sg16
g12
sg17
g12
sg18
Vc:\u005cwindows\u005cfonts\u005cgilsanub.ttf
p1705
sg20
g21
sbag1
(g8
g3
NtRp1706
(dp1707
g11
g12
sg13
S'Papyrus'
p1708
sg15
I400
sg16
g12
sg17
g12
sg18
VC:\u005cWindows\u005cFonts\u005cPAPYRUS.TTF
p1709
sg20
g21
sbag1
(g8
g3
NtRp1710
(dp1711
g11
g12
sg13
S'Gigi'
p1712
sg15
I400
sg16
g12
sg17
g12
sg18
Vc:\u005cwindows\u005cfonts\u005cgigi.ttf
p1713
sg20
g21
sbag1
(g8
g3
NtRp1714
(dp1715
g11
g12
sg13
S'Tempus Sans ITC'
p1716
sg15
I400
sg16
g12
sg17
g12
sg18
Vc:\u005cwindows\u005cfonts\u005ctempsitc.ttf
p1717
sg20
g21
sbag1
(g8
g3
NtRp1718
(dp1719
g11
g12
sg13
S'Lucida Bright'
p1720
sg15
I700
sg16
g12
sg17
g12
sg18
VC:\u005cWindows\u005cFonts\u005cLBRITED.TTF
p1721
sg20
g21
sbag1
(g8
g3
NtRp1722
(dp1723
g11
g12
sg13
S'Berlin Sans FB'
p1724
sg15
I700
sg16
g12
sg17
g12
sg18
VC:\u005cWindows\u005cFonts\u005cBRLNSB.TTF
p1725
sg20
g21
sbag1
(g8
g3
NtRp1726
(dp1727
g11
g28
sg13
S'LilyUPC'
p1728
sg15
I700
sg16
g12
sg17
g12
sg18
Vc:\u005cwindows\u005cfonts\u005cupclbi.ttf
p1729
sg20
g21
sbag1
(g8
g3
NtRp1730
(dp1731
g11
g12
sg13
S'Wide Latin'
p1732
sg15
I400
sg16
g1604
sg17
g12
sg18
Vc:\u005cwindows\u005cfonts\u005clatinwd.ttf
p1733
sg20
g21
sbag1
(g8
g3
NtRp1734
(dp1735
g11
g12
sg13
S'Raavi'
p1736
sg15
I700
sg16
g12
sg17
g12
sg18
VC:\u005cWindows\u005cFonts\u005craavib.ttf
p1737
sg20
g21
sbag1
(g8
g3
NtRp1738
(dp1739
g11
g12
sg13
S'High Tower Text'
p1740
sg15
I400
sg16
g12
sg17
g12
sg18
Vc:\u005cwindows\u005cfonts\u005chtowert.ttf
p1741
sg20
g21
sbag1
(g8
g3
NtRp1742
(dp1743
g11
g12
sg13
S'Papyrus'
p1744
sg15
I400
sg16
g12
sg17
g12
sg18
Vc:\u005cwindows\u005cfonts\u005cpapyrus.ttf
p1745
sg20
g21
sbag1
(g8
g3
NtRp1746
(dp1747
g11
g28
sg13
S'Lucida Bright'
p1748
sg15
I700
sg16
g12
sg17
g12
sg18
Vc:\u005cwindows\u005cfonts\u005clbritedi.ttf
p1749
sg20
g21
sbag1
(g8
g3
NtRp1750
(dp1751
g11
g12
sg13
S'Elephant'
p1752
sg15
I400
sg16
g12
sg17
g12
sg18
Vc:\u005cwindows\u005cfonts\u005celephnt.ttf
p1753
sg20
g21
sbag1
(g8
g3
NtRp1754
(dp1755
g11
g12
sg13
S'Qualcomm Office'
p1756
sg15
I700
sg16
g12
sg17
g12
sg18
Vc:\u005cwindows\u005cfonts\u005cqualcommoffice-semibold.ttf
p1757
sg20
g21
sbag1
(g8
g3
NtRp1758
(dp1759
g11
g28
sg13
S'LilyUPC'
p1760
sg15
I400
sg16
g12
sg17
g12
sg18
VC:\u005cWindows\u005cFonts\u005cupcli.ttf
p1761
sg20
g21
sbag1
(g8
g3
NtRp1762
(dp1763
g11
g12
sg13
S'Franklin Gothic Demi Cond'
p1764
sg15
I600
sg16
g114
sg17
g12
sg18
Vc:\u005cwindows\u005cfonts\u005cfradmcn.ttf
p1765
sg20
g21
sbag1
(g8
g3
NtRp1766
(dp1767
g11
g28
sg13
S'Consolas'
p1768
sg15
I700
sg16
g12
sg17
g12
sg18
Vc:\u005cwindows\u005cfonts\u005cconsolaz.ttf
p1769
sg20
g21
sbag1
(g8
g3
NtRp1770
(dp1771
g11
g28
sg13
S'Bookman Old Style'
p1772
sg15
I700
sg16
g12
sg17
g12
sg18
Vc:\u005cwindows\u005cfonts\u005cbookosbi.ttf
p1773
sg20
g21
sbag1
(g8
g3
NtRp1774
(dp1775
g11
g12
sg13
S'High Tower Text'
p1776
sg15
I400
sg16
g12
sg17
g12
sg18
VC:\u005cWindows\u005cFonts\u005cHTOWERT.TTF
p1777
sg20
g21
sbag1
(g8
g3
NtRp1778
(dp1779
g11
g28
sg13
S'EucrosiaUPC'
p1780
sg15
I400
sg16
g12
sg17
g12
sg18
Vc:\u005cwindows\u005cfonts\u005cupcei.ttf
p1781
sg20
g21
sbag1
(g8
g3
NtRp1782
(dp1783
g11
g12
sg13
S'KodchiangUPC'
p1784
sg15
I700
sg16
g12
sg17
g12
sg18
Vc:\u005cwindows\u005cfonts\u005cupckb.ttf
p1785
sg20
g21
sbag1
(g8
g3
NtRp1786
(dp1787
g11
g12
sg13
S'Microsoft New Tai Lue'
p1788
sg15
I400
sg16
g12
sg17
g12
sg18
VC:\u005cWindows\u005cFonts\u005cntailu.ttf
p1789
sg20
g21
sbag1
(g8
g3
NtRp1790
(dp1791
g11
g12
sg13
S'Vani'
p1792
sg15
I700
sg16
g12
sg17
g12
sg18
VC:\u005cWindows\u005cFonts\u005cVanib.ttf
p1793
sg20
g21
sbag1
(g8
g3
NtRp1794
(dp1795
g11
g12
sg13
S'Tempus Sans ITC'
p1796
sg15
I400
sg16
g12
sg17
g12
sg18
VC:\u005cWindows\u005cFonts\u005cTEMPSITC.TTF
p1797
sg20
g21
sbag1
(g8
g3
NtRp1798
(dp1799
g11
g28
sg13
S'Corbel'
p1800
sg15
I400
sg16
g12
sg17
g12
sg18
VC:\u005cWindows\u005cFonts\u005ccorbeli.ttf
p1801
sg20
g21
sbag1
(g8
g3
NtRp1802
(dp1803
g11
g12
sg13
S'Gisha'
p1804
sg15
I700
sg16
g12
sg17
g12
sg18
VC:\u005cWindows\u005cFonts\u005cgishabd.ttf
p1805
sg20
g21
sbag1
(g8
g3
NtRp1806
(dp1807
g11
g12
sg13
S'Perpetua'
p1808
sg15
I700
sg16
g12
sg17
g12
sg18
VC:\u005cWindows\u005cFonts\u005cPERB____.TTF
p1809
sg20
g21
sbag1
(g8
g3
NtRp1810
(dp1811
g11
g12
sg13
S'Estrangelo Edessa'
p1812
sg15
I400
sg16
g12
sg17
g12
sg18
VC:\u005cWindows\u005cFonts\u005cestre.ttf
p1813
sg20
g21
sbag1
(g8
g3
NtRp1814
(dp1815
g11
g12
sg13
S'Nyala'
p1816
sg15
I400
sg16
g12
sg17
g12
sg18
Vc:\u005cwindows\u005cfonts\u005cnyala.ttf
p1817
sg20
g21
sbag1
(g8
g3
NtRp1818
(dp1819
g11
g12
sg13
S'Bell MT'
p1820
sg15
I700
sg16
g12
sg17
g12
sg18
VC:\u005cWindows\u005cFonts\u005cBELLB.TTF
p1821
sg20
g21
sbag1
(g8
g3
NtRp1822
(dp1823
g11
g12
sg13
S'Rockwell'
p1824
sg15
I400
sg16
g12
sg17
g12
sg18
Vc:\u005cwindows\u005cfonts\u005crock.ttf
p1825
sg20
g21
sbag1
(g8
g3
NtRp1826
(dp1827
g11
g12
sg13
S'Agency FB'
p1828
sg15
I700
sg16
g12
sg17
g12
sg18
VC:\u005cWindows\u005cFonts\u005cAGENCYB.TTF
p1829
sg20
g21
sbag1
(g8
g3
NtRp1830
(dp1831
g11
g12
sg13
S'Vrinda'
p1832
sg15
I400
sg16
g12
sg17
g12
sg18
VC:\u005cWindows\u005cFonts\u005cvrinda.ttf
p1833
sg20
g21
sbag1
(g8
g3
NtRp1834
(dp1835
g11
g28
sg13
S'Lucida Sans'
p1836
sg15
I700
sg16
g12
sg17
g12
sg18
Vc:\u005cwindows\u005cfonts\u005clsansdi.ttf
p1837
sg20
g21
sbag1
(g8
g3
NtRp1838
(dp1839
g11
g12
sg13
S'Tw Cen MT'
p1840
sg15
I700
sg16
g12
sg17
g12
sg18
Vc:\u005cwindows\u005cfonts\u005ctcb_____.ttf
p1841
sg20
g21
sbag1
(g8
g3
NtRp1842
(dp1843
g11
g12
sg13
S'SWGamekeys MT'
p1844
sg15
I400
sg16
g12
sg17
g12
sg18
Vc:\u005cwindows\u005cfonts\u005cswkeys1.ttf
p1845
sg20
g21
sbag1
(g8
g3
NtRp1846
(dp1847
g11
g12
sg13
S'Century Gothic'
p1848
sg15
I700
sg16
g12
sg17
g12
sg18
VC:\u005cWindows\u005cFonts\u005cGOTHICB.TTF
p1849
sg20
g21
sbag1
(g8
g3
NtRp1850
(dp1851
g11
g28
sg13
S'Rockwell'
p1852
sg15
I700
sg16
g12
sg17
g12
sg18
Vc:\u005cwindows\u005cfonts\u005crockbi.ttf
p1853
sg20
g21
sbag1
(g8
g3
NtRp1854
(dp1855
g11
g12
sg13
S'Georgia'
p1856
sg15
I400
sg16
g12
sg17
g12
sg18
VC:\u005cWindows\u005cFonts\u005cgeorgia.ttf
p1857
sg20
g21
sbag1
(g8
g3
NtRp1858
(dp1859
g11
g12
sg13
S'Perpetua Titling MT'
p1860
sg15
I200
sg16
g12
sg17
g12
sg18
VC:\u005cWindows\u005cFonts\u005cPERTILI.TTF
p1861
sg20
g21
sbag1
(g8
g3
NtRp1862
(dp1863
g11
g12
sg13
S'Elephant'
p1864
sg15
I400
sg16
g12
sg17
g12
sg18
VC:\u005cWindows\u005cFonts\u005cELEPHNT.TTF
p1865
sg20
g21
sbag1
(g8
g3
NtRp1866
(dp1867
g11
g28
sg13
S'Rockwell'
p1868
sg15
I400
sg16
g12
sg17
g12
sg18
VC:\u005cWindows\u005cFonts\u005cROCKI.TTF
p1869
sg20
g21
sbag1
(g8
g3
NtRp1870
(dp1871
g11
g12
sg13
S'OCR A Extended'
p1872
sg15
I400
sg16
g12
sg17
g12
sg18
VC:\u005cWindows\u005cFonts\u005cOCRAEXT.TTF
p1873
sg20
g21
sbag1
(g8
g3
NtRp1874
(dp1875
g11
g12
sg13
S'Microsoft Uighur'
p1876
sg15
I400
sg16
g12
sg17
g12
sg18
Vc:\u005cwindows\u005cfonts\u005cmsuighur.ttf
p1877
sg20
g21
sbag1
(g8
g3
NtRp1878
(dp1879
g11
g28
sg13
S'Bell MT'
p1880
sg15
I400
sg16
g12
sg17
g12
sg18
VC:\u005cWindows\u005cFonts\u005cBELLI.TTF
p1881
sg20
g21
sbag1
(g8
g3
NtRp1882
(dp1883
g11
g12
sg13
S'Eras Bold ITC'
p1884
sg15
I700
sg16
g12
sg17
g12
sg18
VC:\u005cWindows\u005cFonts\u005cERASBD.TTF
p1885
sg20
g21
sbag1
(g8
g3
NtRp1886
(dp1887
g11
g12
sg13
S'AngsanaUPC'
p1888
sg15
I700
sg16
g12
sg17
g12
sg18
VC:\u005cWindows\u005cFonts\u005cangsaub.ttf
p1889
sg20
g21
sbag1
(g8
g3
NtRp1890
(dp1891
g11
g12
sg13
S'Nirmala UI'
p1892
sg15
I700
sg16
g12
sg17
g12
sg18
VC:\u005cWindows\u005cFonts\u005cNIRMALAB.TTF
p1893
sg20
g21
sbag1
(g8
g3
NtRp1894
(dp1895
g11
g28
sg13
S'Vivaldi'
p1896
sg15
I400
sg16
g12
sg17
g12
sg18
Vc:\u005cwindows\u005cfonts\u005cvivaldii.ttf
p1897
sg20
g21
sbag1
(g8
g3
NtRp1898
(dp1899
g11
g12
sg13
S'Lao UI'
p1900
sg15
I700
sg16
g12
sg17
g12
sg18
VC:\u005cWindows\u005cFonts\u005cLaoUIb.ttf
p1901
sg20
g21
sbag1
(g8
g3
NtRp1902
(dp1903
g11
g12
sg13
S'Playbill'
p1904
sg15
I400
sg16
g12
sg17
g12
sg18
VC:\u005cWindows\u005cFonts\u005cPLAYBILL.TTF
p1905
sg20
g21
sbag1
(g8
g3
NtRp1906
(dp1907
g11
g12
sg13
S'Algerian'
p1908
sg15
I400
sg16
g12
sg17
g12
sg18
Vc:\u005cwindows\u005cfonts\u005calger.ttf
p1909
sg20
g21
sbag1
(g8
g3
NtRp1910
(dp1911
g11
g12
sg13
S'Matura MT Script Capitals'
p1912
sg15
I400
sg16
g12
sg17
g12
sg18
Vc:\u005cwindows\u005cfonts\u005cmaturasc.ttf
p1913
sg20
g21
sbag1
(g8
g3
NtRp1914
(dp1915
g11
g28
sg13
S'CordiaUPC'
p1916
sg15
I400
sg16
g12
sg17
g12
sg18
Vc:\u005cwindows\u005cfonts\u005ccordiaui.ttf
p1917
sg20
g21
sbag1
(g8
g3
NtRp1918
(dp1919
g11
g12
sg13
S'Lucida Sans Typewriter'
p1920
sg15
I400
sg16
g12
sg17
g12
sg18
Vc:\u005cwindows\u005cfonts\u005cltype.ttf
p1921
sg20
g21
sbag1
(g8
g3
NtRp1922
(dp1923
g11
g12
sg13
S'Garamond'
p1924
sg15
I400
sg16
g12
sg17
g12
sg18
VC:\u005cWindows\u005cFonts\u005cGARA.TTF
p1925
sg20
g21
sbag1
(g8
g3
NtRp1926
(dp1927
g11
g12
sg13
S'Franklin Gothic Demi'
p1928
sg15
I600
sg16
g12
sg17
g12
sg18
VC:\u005cWindows\u005cFonts\u005cFRADM.TTF
p1929
sg20
g21
sbag1
(g8
g3
NtRp1930
(dp1931
g11
g12
sg13
S'Ravie'
p1932
sg15
I400
sg16
g12
sg17
g12
sg18
VC:\u005cWindows\u005cFonts\u005cRAVIE.TTF
p1933
sg20
g21
sbag1
(g8
g3
NtRp1934
(dp1935
g11
g12
sg13
S'Palace Script MT'
p1936
sg15
I400
sg16
g12
sg17
g12
sg18
Vc:\u005cwindows\u005cfonts\u005cpalscri.ttf
p1937
sg20
g21
sbag1
(g8
g3
NtRp1938
(dp1939
g11
g12
sg13
S'Niagara Solid'
p1940
sg15
I400
sg16
g12
sg17
g12
sg18
Vc:\u005cwindows\u005cfonts\u005cniagsol.ttf
p1941
sg20
g21
sbag1
(g8
g3
NtRp1942
(dp1943
g11
g12
sg13
S'Century Gothic'
p1944
sg15
I400
sg16
g12
sg17
g12
sg18
Vc:\u005cwindows\u005cfonts\u005cgothic.ttf
p1945
sg20
g21
sbag1
(g8
g3
NtRp1946
(dp1947
g11
g12
sg13
S'Shonar Bangla'
p1948
sg15
I700
sg16
g12
sg17
g12
sg18
VC:\u005cWindows\u005cFonts\u005cShonarb.ttf
p1949
sg20
g21
sbag1
(g8
g3
NtRp1950
(dp1951
g11
g28
sg13
S'Garamond'
p1952
sg15
I400
sg16
g12
sg17
g12
sg18
VC:\u005cWindows\u005cFonts\u005cGARAIT.TTF
p1953
sg20
g21
sbag1
(g8
g3
NtRp1954
(dp1955
g11
g12
sg13
S'Webdings'
p1956
sg15
I400
sg16
g12
sg17
g12
sg18
VC:\u005cWindows\u005cFonts\u005cwebdings.ttf
p1957
sg20
g21
sbag1
(g8
g3
NtRp1958
(dp1959
g11
g12
sg13
S'Garamond'
p1960
sg15
I400
sg16
g12
sg17
g12
sg18
Vc:\u005cwindows\u005cfonts\u005cgara.ttf
p1961
sg20
g21
sbag1
(g8
g3
NtRp1962
(dp1963
g11
g12
sg13
S'Showcard Gothic'
p1964
sg15
I400
sg16
g12
sg17
g12
sg18
VC:\u005cWindows\u005cFonts\u005cSHOWG.TTF
p1965
sg20
g21
sbag1
(g8
g3
NtRp1966
(dp1967
g11
g28
sg13
S'Lucida Fax'
p1968
sg15
I400
sg16
g12
sg17
g12
sg18
Vc:\u005cwindows\u005cfonts\u005clfaxi.ttf
p1969
sg20
g21
sbag1
(g8
g3
NtRp1970
(dp1971
g11
g12
sg13
S'Franklin Gothic Heavy'
p1972
sg15
I800
sg16
g12
sg17
g12
sg18
Vc:\u005cwindows\u005cfonts\u005cfrahv.ttf
p1973
sg20
g21
sbag1
(g8
g3
NtRp1974
(dp1975
g11
g12
sg13
S'Niagara Engraved'
p1976
sg15
I400
sg16
g12
sg17
g12
sg18
VC:\u005cWindows\u005cFonts\u005cNIAGENG.TTF
p1977
sg20
g21
sbag1
(g8
g3
NtRp1978
(dp1979
g11
g12
sg13
S'Leelawadee'
p1980
sg15
I700
sg16
g12
sg17
g12
sg18
Vc:\u005cwindows\u005cfonts\u005cleelawdb.ttf
p1981
sg20
g21
sbag1
(g8
g3
NtRp1982
(dp1983
g11
g12
sg13
S'Browallia New'
p1984
sg15
I400
sg16
g12
sg17
g12
sg18
VC:\u005cWindows\u005cFonts\u005cbrowa.ttf
p1985
sg20
g21
sbag1
(g8
g3
NtRp1986
(dp1987
g11
g12
sg13
S'Lao UI'
p1988
sg15
I400
sg16
g12
sg17
g12
sg18
VC:\u005cWindows\u005cFonts\u005cLaoUI.ttf
p1989
sg20
g21
sbag1
(g8
g3
NtRp1990
(dp1991
g11
g12
sg13
S'Andalus'
p1992
sg15
I400
sg16
g12
sg17
g12
sg18
VC:\u005cWindows\u005cFonts\u005candlso.ttf
p1993
sg20
g21
sbag1
(g8
g3
NtRp1994
(dp1995
g11
g12
sg13
S'Informal Roman'
p1996
sg15
I500
sg16
g12
sg17
g12
sg18
VC:\u005cWindows\u005cFonts\u005cINFROMAN.TTF
p1997
sg20
g21
sbag1
(g8
g3
NtRp1998
(dp1999
g11
g12
sg13
S'Microsoft New Tai Lue'
p2000
sg15
I700
sg16
g12
sg17
g12
sg18
VC:\u005cWindows\u005cFonts\u005cntailub.ttf
p2001
sg20
g21
sbag1
(g8
g3
NtRp2002
(dp2003
g11
g12
sg13
S'Vani'
p2004
sg15
I700
sg16
g12
sg17
g12
sg18
Vc:\u005cwindows\u005cfonts\u005cvanib.ttf
p2005
sg20
g21
sbag1
(g8
g3
NtRp2006
(dp2007
g11
g12
sg13
S'MS Reference Specialty'
p2008
sg15
I400
sg16
g12
sg17
g12
sg18
Vc:\u005cwindows\u005cfonts\u005crefspcl.ttf
p2009
sg20
g21
sbag1
(g8
g3
NtRp2010
(dp2011
g11
g28
sg13
S'Qualcomm Office'
p2012
sg15
I700
sg16
g12
sg17
g12
sg18
VC:\u005cWindows\u005cFonts\u005cQualcommOffice-SemiboldItalic.ttf
p2013
sg20
g21
sbag1
(g8
g3
NtRp2014
(dp2015
g11
g28
sg13
S'Goudy Old Style'
p2016
sg15
I400
sg16
g12
sg17
g12
sg18
Vc:\u005cwindows\u005cfonts\u005cgoudosi.ttf
p2017
sg20
g21
sbag1
(g8
g3
NtRp2018
(dp2019
g11
g28
sg13
S'Book Antiqua'
p2020
sg15
I400
sg16
g12
sg17
g12
sg18
Vc:\u005cwindows\u005cfonts\u005cantquai.ttf
p2021
sg20
g21
sbag1
(g8
g3
NtRp2022
(dp2023
g11
g12
sg13
S'Lucida Bright'
p2024
sg15
I400
sg16
g12
sg17
g12
sg18
Vc:\u005cwindows\u005cfonts\u005clbrite.ttf
p2025
sg20
g21
sbag1
(g8
g3
NtRp2026
(dp2027
g11
g12
sg13
S'Kokila'
p2028
sg15
I400
sg16
g12
sg17
g12
sg18
VC:\u005cWindows\u005cFonts\u005ckokila.ttf
p2029
sg20
g21
sbag1
(g8
g3
NtRp2030
(dp2031
g11
g12
sg13
S'Verdana'
p2032
sg15
I400
sg16
g12
sg17
g12
sg18
VC:\u005cWindows\u005cFonts\u005cverdana.ttf
p2033
sg20
g21
sbag1
(g8
g3
NtRp2034
(dp2035
g11
g12
sg13
S'French Script MT'
p2036
sg15
I400
sg16
g12
sg17
g12
sg18
Vc:\u005cwindows\u005cfonts\u005cfrscript.ttf
p2037
sg20
g21
sbag1
(g8
g3
NtRp2038
(dp2039
g11
g12
sg13
S'Rockwell'
p2040
sg15
I400
sg16
g12
sg17
g12
sg18
VC:\u005cWindows\u005cFonts\u005cROCK.TTF
p2041
sg20
g21
sbag1
(g8
g3
NtRp2042
(dp2043
g11
g28
sg13
S'Arial'
p2044
sg15
I700
sg16
g114
sg17
g12
sg18
VC:\u005cWindows\u005cFonts\u005cARIALNBI.TTF
p2045
sg20
g21
sbag1
(g8
g3
NtRp2046
(dp2047
g11
g12
sg13
S'Bodoni MT'
p2048
sg15
I900
sg16
g12
sg17
g12
sg18
Vc:\u005cwindows\u005cfonts\u005cbod_blar.ttf
p2049
sg20
g21
sbag1
(g8
g3
NtRp2050
(dp2051
g11
g12
sg13
S'Copperplate Gothic Bold'
p2052
sg15
I700
sg16
g12
sg17
g12
sg18
Vc:\u005cwindows\u005cfonts\u005ccoprgtb.ttf
p2053
sg20
g21
sbag1
(g8
g3
NtRp2054
(dp2055
g11
g28
sg13
S'Goudy Old Style'
p2056
sg15
I400
sg16
g12
sg17
g12
sg18
VC:\u005cWindows\u005cFonts\u005cGOUDOSI.TTF
p2057
sg20
g21
sbag1
(g8
g3
NtRp2058
(dp2059
g11
g12
sg13
S'Harrington'
p2060
sg15
I400
sg16
g12
sg17
g12
sg18
VC:\u005cWindows\u005cFonts\u005cHARNGTON.TTF
p2061
sg20
g21
sbag1
(g8
g3
NtRp2062
(dp2063
g11
g12
sg13
S'Gill Sans MT Condensed'
p2064
sg15
I400
sg16
g114
sg17
g12
sg18
Vc:\u005cwindows\u005cfonts\u005cgilc____.ttf
p2065
sg20
g21
sbag1
(g8
g3
NtRp2066
(dp2067
g11
g28
sg13
S'Bodoni MT'
p2068
sg15
I700
sg16
g12
sg17
g12
sg18
VC:\u005cWindows\u005cFonts\u005cBOD_BI.TTF
p2069
sg20
g21
sbag1
(g8
g3
NtRp2070
(dp2071
g11
g12
sg13
S'Parchment'
p2072
sg15
I400
sg16
g12
sg17
g12
sg18
VC:\u005cWindows\u005cFonts\u005cPARCHM.TTF
p2073
sg20
g21
sbag1
(g8
g3
NtRp2074
(dp2075
g11
g12
sg13
S'Times New Roman'
p2076
sg15
I700
sg16
g12
sg17
g12
sg18
Vc:\u005cwindows\u005cfonts\u005ctimesbd.ttf
p2077
sg20
g21
sbag1
(g8
g3
NtRp2078
(dp2079
g11
g28
sg13
S'Browallia New'
p2080
sg15
I700
sg16
g12
sg17
g12
sg18
Vc:\u005cwindows\u005cfonts\u005cbrowaz.ttf
p2081
sg20
g21
sbag1
(g8
g3
NtRp2082
(dp2083
g11
g12
sg13
S'Rockwell Condensed'
p2084
sg15
I400
sg16
g114
sg17
g12
sg18
Vc:\u005cwindows\u005cfonts\u005crocc____.ttf
p2085
sg20
g21
sbag1
(g8
g3
NtRp2086
(dp2087
g11
g28
sg13
S'DilleniaUPC'
p2088
sg15
I400
sg16
g12
sg17
g12
sg18
VC:\u005cWindows\u005cFonts\u005cupcdi.ttf
p2089
sg20
g21
sbag1
(g8
g3
NtRp2090
(dp2091
g11
g28
sg13
S'Qualcomm Office'
p2092
sg15
I400
sg16
g12
sg17
g12
sg18
Vc:\u005cwindows\u005cfonts\u005cqualcommoffice-thinitalic.ttf
p2093
sg20
g21
sbag1
(g8
g3
NtRp2094
(dp2095
g11
g12
sg13
S'CordiaUPC'
p2096
sg15
I400
sg16
g12
sg17
g12
sg18
Vc:\u005cwindows\u005cfonts\u005ccordiau.ttf
p2097
sg20
g21
sbag1
(g8
g3
NtRp2098
(dp2099
g11
g12
sg13
S'EucrosiaUPC'
p2100
sg15
I700
sg16
g12
sg17
g12
sg18
Vc:\u005cwindows\u005cfonts\u005cupceb.ttf
p2101
sg20
g21
sbag1
(g8
g3
NtRp2102
(dp2103
g11
g12
sg13
S'Segoe UI'
p2104
sg15
I400
sg16
g12
sg17
g12
sg18
Vc:\u005cwindows\u005cfonts\u005csegoeuisl.ttf
p2105
sg20
g21
sbag1
(g8
g3
NtRp2106
(dp2107
g11
g28
sg13
S'Vivaldi'
p2108
sg15
I400
sg16
g12
sg17
g12
sg18
VC:\u005cWindows\u005cFonts\u005cVIVALDII.TTF
p2109
sg20
g21
sbag1
(g8
g3
NtRp2110
(dp2111
g11
g12
sg13
S'Bookman Old Style'
p2112
sg15
I400
sg16
g12
sg17
g12
sg18
VC:\u005cWindows\u005cFonts\u005cBOOKOS.TTF
p2113
sg20
g21
sbag1
(g8
g3
NtRp2114
(dp2115
g11
g12
sg13
S'Tahoma'
p2116
sg15
I400
sg16
g12
sg17
g12
sg18
VC:\u005cWindows\u005cFonts\u005ctahoma.ttf
p2117
sg20
g21
sbag1
(g8
g3
NtRp2118
(dp2119
g11
g12
sg13
S'Magneto'
p2120
sg15
I700
sg16
g12
sg17
g12
sg18
VC:\u005cWindows\u005cFonts\u005cMAGNETOB.TTF
p2121
sg20
g21
sbag1
(g8
g3
NtRp2122
(dp2123
g11
g12
sg13
S'Tw Cen MT Condensed'
p2124
sg15
I400
sg16
g114
sg17
g12
sg18
Vc:\u005cwindows\u005cfonts\u005ctccm____.ttf
p2125
sg20
g21
sbag1
(g8
g3
NtRp2126
(dp2127
g11
g12
sg13
S'Gill Sans MT Ext Condensed Bold'
p2128
sg15
I700
sg16
g114
sg17
g12
sg18
Vc:\u005cwindows\u005cfonts\u005cglsnecb.ttf
p2129
sg20
g21
sbag1
(g8
g3
NtRp2130
(dp2131
g11
g28
sg13
S'Angsana New'
p2132
sg15
I700
sg16
g12
sg17
g12
sg18
Vc:\u005cwindows\u005cfonts\u005cangsaz.ttf
p2133
sg20
g21
sbag1
(g8
g3
NtRp2134
(dp2135
g11
g12
sg13
S'Franklin Gothic Medium Cond'
p2136
sg15
I500
sg16
g114
sg17
g12
sg18
VC:\u005cWindows\u005cFonts\u005cFRAMDCN.TTF
p2137
sg20
g21
sbag1
(g8
g3
NtRp2138
(dp2139
g11
g12
sg13
S'Imprint MT Shadow'
p2140
sg15
I400
sg16
g12
sg17
g12
sg18
VC:\u005cWindows\u005cFonts\u005cIMPRISHA.TTF
p2141
sg20
g21
sbag1
(g8
g3
NtRp2142
(dp2143
g11
g12
sg13
S'Gill Sans MT'
p2144
sg15
I400
sg16
g12
sg17
g12
sg18
VC:\u005cWindows\u005cFonts\u005cGIL_____.TTF
p2145
sg20
g21
sbag1
(g8
g3
NtRp2146
(dp2147
g11
g12
sg13
S'Footlight MT Light'
p2148
sg15
I200
sg16
g12
sg17
g12
sg18
VC:\u005cWindows\u005cFonts\u005cFTLTLT.TTF
p2149
sg20
g21
sbag1
(g8
g3
NtRp2150
(dp2151
g11
g12
sg13
S'Century Gothic'
p2152
sg15
I700
sg16
g12
sg17
g12
sg18
Vc:\u005cwindows\u005cfonts\u005cgothicb.ttf
p2153
sg20
g21
sbag1
(g8
g3
NtRp2154
(dp2155
g11
g12
sg13
S'CordiaUPC'
p2156
sg15
I700
sg16
g12
sg17
g12
sg18
Vc:\u005cwindows\u005cfonts\u005ccordiaub.ttf
p2157
sg20
g21
sbag1
(g8
g3
NtRp2158
(dp2159
g11
g12
sg13
S'Qualcomm Office'
p2160
sg15
I200
sg16
g12
sg17
g12
sg18
Vc:\u005cwindows\u005cfonts\u005cqualcommoffice-light.ttf
p2161
sg20
g21
sbag1
(g8
g3
NtRp2162
(dp2163
g11
g12
sg13
S'Bookman Old Style'
p2164
sg15
I400
sg16
g12
sg17
g12
sg18
Vc:\u005cwindows\u005cfonts\u005cbookos.ttf
p2165
sg20
g21
sbag1
(g8
g3
NtRp2166
(dp2167
g11
g28
sg13
S'Californian FB'
p2168
sg15
I400
sg16
g12
sg17
g12
sg18
VC:\u005cWindows\u005cFonts\u005cCALIFI.TTF
p2169
sg20
g21
sbag1
(g8
g3
NtRp2170
(dp2171
g11
g12
sg13
S'Berlin Sans FB Demi'
p2172
sg15
I700
sg16
g12
sg17
g12
sg18
Vc:\u005cwindows\u005cfonts\u005cbrlnsdb.ttf
p2173
sg20
g21
sbag1
(g8
g3
NtRp2174
(dp2175
g11
g12
sg13
S'Perpetua'
p2176
sg15
I700
sg16
g12
sg17
g12
sg18
Vc:\u005cwindows\u005cfonts\u005cperb____.ttf
p2177
sg20
g21
sbag1
(g8
g3
NtRp2178
(dp2179
g11
g28
sg13
S'Rage Italic'
p2180
sg15
I400
sg16
g12
sg17
g12
sg18
Vc:\u005cwindows\u005cfonts\u005crage.ttf
p2181
sg20
g21
sbag1
(g8
g3
NtRp2182
(dp2183
g11
g28
sg13
S'Arial'
p2184
sg15
I700
sg16
g114
sg17
g12
sg18
Vc:\u005cwindows\u005cfonts\u005carialnbi.ttf
p2185
sg20
g21
sbag1
(g8
g3
NtRp2186
(dp2187
g11
g12
sg13
S'Nirmala UI'
p2188
sg15
I400
sg16
g12
sg17
g12
sg18
VC:\u005cWindows\u005cFonts\u005cNIRMALA.TTF
p2189
sg20
g21
sbag1
(g8
g3
NtRp2190
(dp2191
g11
g12
sg13
S'Bodoni MT'
p2192
sg15
I700
sg16
g114
sg17
g12
sg18
Vc:\u005cwindows\u005cfonts\u005cbod_cb.ttf
p2193
sg20
g21
sbag1
(g8
g3
NtRp2194
(dp2195
g11
g28
sg13
S'Franklin Gothic Demi'
p2196
sg15
I600
sg16
g12
sg17
g12
sg18
VC:\u005cWindows\u005cFonts\u005cFRADMIT.TTF
p2197
sg20
g21
sbag1
(g8
g3
NtRp2198
(dp2199
g11
g12
sg13
S'Parchment'
p2200
sg15
I400
sg16
g12
sg17
g12
sg18
Vc:\u005cwindows\u005cfonts\u005cparchm.ttf
p2201
sg20
g21
sbag1
(g8
g3
NtRp2202
(dp2203
g11
g28
sg13
S'Harlow Solid Italic'
p2204
sg15
I400
sg16
g12
sg17
g12
sg18
Vc:\u005cwindows\u005cfonts\u005charlowsi.ttf
p2205
sg20
g21
sbag1
(g8
g3
NtRp2206
(dp2207
g11
g12
sg13
S'Poor Richard'
p2208
sg15
I400
sg16
g12
sg17
g12
sg18
VC:\u005cWindows\u005cFonts\u005cPOORICH.TTF
p2209
sg20
g21
sbag1
(g8
g3
NtRp2210
(dp2211
g11
g12
sg13
S'Bodoni MT'
p2212
sg15
I400
sg16
g114
sg17
g12
sg18
VC:\u005cWindows\u005cFonts\u005cBOD_CR.TTF
p2213
sg20
g21
sbag1
(g8
g3
NtRp2214
(dp2215
g11
g12
sg13
S'Showcard Gothic'
p2216
sg15
I400
sg16
g12
sg17
g12
sg18
Vc:\u005cwindows\u005cfonts\u005cshowg.ttf
p2217
sg20
g21
sbag1
(g8
g3
NtRp2218
(dp2219
g11
g28
sg13
S'Arial'
p2220
sg15
I400
sg16
g114
sg17
g12
sg18
Vc:\u005cwindows\u005cfonts\u005carialni.ttf
p2221
sg20
g21
sbag1
(g8
g3
NtRp2222
(dp2223
g11
g28
sg13
S'Lucida Sans'
p2224
sg15
I700
sg16
g12
sg17
g12
sg18
VC:\u005cWindows\u005cFonts\u005cLSANSDI.TTF
p2225
sg20
g21
sbag1
(g8
g3
NtRp2226
(dp2227
g11
g28
sg13
S'Century Gothic'
p2228
sg15
I400
sg16
g12
sg17
g12
sg18
Vc:\u005cwindows\u005cfonts\u005cgothici.ttf
p2229
sg20
g21
sbag1
(g8
g3
NtRp2230
(dp2231
g11
g12
sg13
S'Rockwell Extra Bold'
p2232
sg15
I700
sg16
g12
sg17
g12
sg18
VC:\u005cWindows\u005cFonts\u005cROCKEB.TTF
p2233
sg20
g21
sbag1
(g8
g3
NtRp2234
(dp2235
g11
g12
sg13
S'Vani'
p2236
sg15
I400
sg16
g12
sg17
g12
sg18
VC:\u005cWindows\u005cFonts\u005cVani.ttf
p2237
sg20
g21
sbag1
(g8
g3
NtRp2238
(dp2239
g11
g12
sg13
S'Eras Demi ITC'
p2240
sg15
I600
sg16
g12
sg17
g12
sg18
VC:\u005cWindows\u005cFonts\u005cERASDEMI.TTF
p2241
sg20
g21
sbag1
(g8
g3
NtRp2242
(dp2243
g11
g12
sg13
S'Qualcomm Office'
p2244
sg15
I400
sg16
g12
sg17
g12
sg18
Vc:\u005cwindows\u005cfonts\u005cqualcommoffice-regular.ttf
p2245
sg20
g21
sbag1
(g8
g3
NtRp2246
(dp2247
g11
g12
sg13
S'Lucida Bright'
p2248
sg15
I400
sg16
g12
sg17
g12
sg18
VC:\u005cWindows\u005cFonts\u005cLBRITE.TTF
p2249
sg20
g21
sbag1
(g8
g3
NtRp2250
(dp2251
g11
g12
sg13
S'Forte'
p2252
sg15
I400
sg16
g12
sg17
g12
sg18
Vc:\u005cwindows\u005cfonts\u005cforte.ttf
p2253
sg20
g21
sbag1
(g8
g3
NtRp2254
(dp2255
g11
g12
sg13
S'Palatino Linotype'
p2256
sg15
I400
sg16
g12
sg17
g12
sg18
Vc:\u005cwindows\u005cfonts\u005cpala.ttf
p2257
sg20
g21
sbag1
(g8
g3
NtRp2258
(dp2259
g11
g12
sg13
S'Agency FB'
p2260
sg15
I400
sg16
g12
sg17
g12
sg18
VC:\u005cWindows\u005cFonts\u005cAGENCYR.TTF
p2261
sg20
g21
sbag1
(g8
g3
NtRp2262
(dp2263
g11
g12
sg13
S'Goudy Old Style'
p2264
sg15
I400
sg16
g12
sg17
g12
sg18
Vc:\u005cwindows\u005cfonts\u005cgoudos.ttf
p2265
sg20
g21
sbag1
(g8
g3
NtRp2266
(dp2267
g11
g12
sg13
S'Tw Cen MT Condensed Extra Bold'
p2268
sg15
I700
sg16
g114
sg17
g12
sg18
Vc:\u005cwindows\u005cfonts\u005ctcceb.ttf
p2269
sg20
g21
sbag1
(g8
g3
NtRp2270
(dp2271
g11
g12
sg13
S'Kunstler Script'
p2272
sg15
I400
sg16
g12
sg17
g12
sg18
Vc:\u005cwindows\u005cfonts\u005ckunstler.ttf
p2273
sg20
g21
sbag1
(g8
g3
NtRp2274
(dp2275
g11
g12
sg13
S'Arial Unicode MS'
p2276
sg15
I400
sg16
g12
sg17
g12
sg18
VC:\u005cWindows\u005cFonts\u005cARIALUNI.TTF
p2277
sg20
g21
sbag1
(g8
g3
NtRp2278
(dp2279
g11
g12
sg13
S'Algerian'
p2280
sg15
I400
sg16
g12
sg17
g12
sg18
VC:\u005cWindows\u005cFonts\u005cALGER.TTF
p2281
sg20
g21
sbag1
(g8
g3
NtRp2282
(dp2283
g11
g12
sg13
S'Rod'
p2284
sg15
I400
sg16
g12
sg17
g12
sg18
Vc:\u005cwindows\u005cfonts\u005crod.ttf
p2285
sg20
g21
sbag1
(g8
g3
NtRp2286
(dp2287
g11
g12
sg13
S'Segoe UI Symbol'
p2288
sg15
I400
sg16
g12
sg17
g12
sg18
Vc:\u005cwindows\u005cfonts\u005cseguisym.ttf
p2289
sg20
g21
sbag1
(g8
g3
NtRp2290
(dp2291
g11
g12
sg13
S'Bodoni MT'
p2292
sg15
I900
sg16
g12
sg17
g12
sg18
VC:\u005cWindows\u005cFonts\u005cBOD_BLAR.TTF
p2293
sg20
g21
sbag1
(g8
g3
NtRp2294
(dp2295
g11
g12
sg13
S'Snap ITC'
p2296
sg15
I400
sg16
g12
sg17
g12
sg18
Vc:\u005cwindows\u005cfonts\u005csnap____.ttf
p2297
sg20
g21
sbag1
(g8
g3
NtRp2298
(dp2299
g11
g28
sg13
S'Candara'
p2300
sg15
I700
sg16
g12
sg17
g12
sg18
Vc:\u005cwindows\u005cfonts\u005ccandaraz.ttf
p2301
sg20
g21
sbag1
(g8
g3
NtRp2302
(dp2303
g11
g12
sg13
S'Agency FB'
p2304
sg15
I400
sg16
g12
sg17
g12
sg18
Vc:\u005cwindows\u005cfonts\u005cagencyr.ttf
p2305
sg20
g21
sbag1
(g8
g3
NtRp2306
(dp2307
g11
g12
sg13
S'Edwardian Script ITC'
p2308
sg15
I400
sg16
g12
sg17
g12
sg18
Vc:\u005cwindows\u005cfonts\u005citcedscr.ttf
p2309
sg20
g21
sbag1
(g8
g3
NtRp2310
(dp2311
g11
g12
sg13
S'Edwardian Script ITC'
p2312
sg15
I400
sg16
g12
sg17
g12
sg18
VC:\u005cWindows\u005cFonts\u005cITCEDSCR.TTF
p2313
sg20
g21
sbag1
(g8
g3
NtRp2314
(dp2315
g11
g28
sg13
S'Century Schoolbook'
p2316
sg15
I400
sg16
g12
sg17
g12
sg18
VC:\u005cWindows\u005cFonts\u005cSCHLBKI.TTF
p2317
sg20
g21
sbag1
(g8
g3
NtRp2318
(dp2319
g11
g12
sg13
S'MT Extra'
p2320
sg15
I400
sg16
g12
sg17
g12
sg18
Vc:\u005cprogram files (x86)\u005ccommon files\u005cmicrosoft shared\u005cequation\u005cmtextra.ttf
p2321
sg20
g21
sbag1
(g8
g3
NtRp2322
(dp2323
g11
g12
sg13
S'Century Schoolbook'
p2324
sg15
I400
sg16
g12
sg17
g12
sg18
VC:\u005cWindows\u005cFonts\u005cCENSCBK.TTF
p2325
sg20
g21
sbag1
(g8
g3
NtRp2326
(dp2327
g11
g12
sg13
S'Goudy Stout'
p2328
sg15
I400
sg16
g12
sg17
g12
sg18
VC:\u005cWindows\u005cFonts\u005cGOUDYSTO.TTF
p2329
sg20
g21
sbag1
(g8
g3
NtRp2330
(dp2331
g11
g28
sg13
S'Qualcomm Office'
p2332
sg15
I400
sg16
g12
sg17
g12
sg18
VC:\u005cWindows\u005cFonts\u005cQualcommOffice-RegularItalic.ttf
p2333
sg20
g21
sbag1
(g8
g3
NtRp2334
(dp2335
g11
g12
sg13
S'Khmer UI'
p2336
sg15
I700
sg16
g12
sg17
g12
sg18
VC:\u005cWindows\u005cFonts\u005cKhmerUIb.ttf
p2337
sg20
g21
sbag1
(g8
g3
NtRp2338
(dp2339
g11
g12
sg13
S'FangSong'
p2340
sg15
I400
sg16
g12
sg17
g12
sg18
Vc:\u005cwindows\u005cfonts\u005csimfang.ttf
p2341
sg20
g21
sbag1
(g8
g3
NtRp2342
(dp2343
g11
g12
sg13
S'Georgia'
p2344
sg15
I700
sg16
g12
sg17
g12
sg18
Vc:\u005cwindows\u005cfonts\u005cgeorgiab.ttf
p2345
sg20
g21
sbag1
(g8
g3
NtRp2346
(dp2347
g11
g230
sg13
S'Lucida Sans Typewriter'
p2348
sg15
I700
sg16
g12
sg17
g12
sg18
VC:\u005cWindows\u005cFonts\u005cLTYPEBO.TTF
p2349
sg20
g21
sbag1
(g8
g3
NtRp2350
(dp2351
g11
g12
sg13
S'Viner Hand ITC'
p2352
sg15
I400
sg16
g12
sg17
g12
sg18
VC:\u005cWindows\u005cFonts\u005cVINERITC.TTF
p2353
sg20
g21
sbag1
(g8
g3
NtRp2354
(dp2355
g11
g12
sg13
S'Niagara Engraved'
p2356
sg15
I400
sg16
g12
sg17
g12
sg18
Vc:\u005cwindows\u005cfonts\u005cniageng.ttf
p2357
sg20
g21
sbag1
(g8
g3
NtRp2358
(dp2359
g11
g12
sg13
S'MS Reference Specialty'
p2360
sg15
I400
sg16
g12
sg17
g12
sg18
VC:\u005cWindows\u005cFonts\u005cREFSPCL.TTF
p2361
sg20
g21
sbag1
(g8
g3
NtRp2362
(dp2363
g11
g28
sg13
S'Rockwell'
p2364
sg15
I700
sg16
g12
sg17
g12
sg18
VC:\u005cWindows\u005cFonts\u005cROCKBI.TTF
p2365
sg20
g21
sbag1
(g8
g3
NtRp2366
(dp2367
g11
g12
sg13
S'Lucida Sans'
p2368
sg15
I700
sg16
g12
sg17
g12
sg18
Vc:\u005cwindows\u005cfonts\u005clsansd.ttf
p2369
sg20
g21
sbag1
(g8
g3
NtRp2370
(dp2371
g11
g12
sg13
S'Rockwell Condensed'
p2372
sg15
I400
sg16
g114
sg17
g12
sg18
VC:\u005cWindows\u005cFonts\u005cROCC____.TTF
p2373
sg20
g21
sbag1
(g8
g3
NtRp2374
(dp2375
g11
g12
sg13
S'Gadugi'
p2376
sg15
I700
sg16
g12
sg17
g12
sg18
Vc:\u005cwindows\u005cfonts\u005cgadugib.ttf
p2377
sg20
g21
sbag1
(g8
g3
NtRp2378
(dp2379
g11
g12
sg13
S'Monotype Corsiva'
p2380
sg15
I400
sg16
g12
sg17
g12
sg18
VC:\u005cWindows\u005cFonts\u005cMTCORSVA.TTF
p2381
sg20
g21
sbag1
(g8
g3
NtRp2382
(dp2383
g11
g12
sg13
S'MS Outlook'
p2384
sg15
I400
sg16
g12
sg17
g12
sg18
VC:\u005cWindows\u005cFonts\u005cOUTLOOK.TTF
p2385
sg20
g21
sbag1
(g8
g3
NtRp2386
(dp2387
g11
g28
sg13
S'Lucida Bright'
p2388
sg15
I400
sg16
g12
sg17
g12
sg18
Vc:\u005cwindows\u005cfonts\u005clbritei.ttf
p2389
sg20
g21
sbag1
(g8
g3
NtRp2390
(dp2391
g11
g12
sg13
S'Bodoni MT'
p2392
sg15
I400
sg16
g12
sg17
g12
sg18
VC:\u005cWindows\u005cFonts\u005cBOD_R.TTF
p2393
sg20
g21
sbag1
(g8
g3
NtRp2394
(dp2395
g11
g28
sg13
S'Qualcomm Office'
p2396
sg15
I200
sg16
g12
sg17
g12
sg18
Vc:\u005cwindows\u005cfonts\u005cqualcommoffice-lightitalic.ttf
p2397
sg20
g21
sbag1
(g8
g3
NtRp2398
(dp2399
g11
g28
sg13
S'High Tower Text'
p2400
sg15
I400
sg16
g12
sg17
g12
sg18
Vc:\u005cwindows\u005cfonts\u005chtowerti.ttf
p2401
sg20
g21
sbag1
(g8
g3
NtRp2402
(dp2403
g11
g12
sg13
S'Onyx'
p2404
sg15
I400
sg16
g12
sg17
g12
sg18
Vc:\u005cwindows\u005cfonts\u005conyx.ttf
p2405
sg20
g21
sbag1
(g8
g3
NtRp2406
(dp2407
g11
g12
sg13
S'Kristen ITC'
p2408
sg15
I400
sg16
g12
sg17
g12
sg18
Vc:\u005cwindows\u005cfonts\u005citckrist.ttf
p2409
sg20
g21
sbag1
(g8
g3
NtRp2410
(dp2411
g11
g12
sg13
S'Lucida Bright'
p2412
sg15
I700
sg16
g12
sg17
g12
sg18
Vc:\u005cwindows\u005cfonts\u005clbrited.ttf
p2413
sg20
g21
sbag1
(g8
g3
NtRp2414
(dp2415
g11
g12
sg13
S'Gill Sans MT Condensed'
p2416
sg15
I400
sg16
g114
sg17
g12
sg18
VC:\u005cWindows\u005cFonts\u005cGILC____.TTF
p2417
sg20
g21
sbag1
(g8
g3
NtRp2418
(dp2419
g11
g12
sg13
S'Goudy Old Style'
p2420
sg15
I400
sg16
g12
sg17
g12
sg18
VC:\u005cWindows\u005cFonts\u005cGOUDOS.TTF
p2421
sg20
g21
sbag1
(g8
g3
NtRp2422
(dp2423
g11
g12
sg13
S'MS Mincho'
p2424
sg15
I400
sg16
g12
sg17
g12
sg18
VC:\u005cWindows\u005cFonts\u005cMSMINCHO.TTF
p2425
sg20
g21
sbag1
(g8
g3
NtRp2426
(dp2427
g11
g12
sg13
S'Bradley Hand ITC'
p2428
sg15
I400
sg16
g12
sg17
g12
sg18
Vc:\u005cwindows\u005cfonts\u005cbradhitc.ttf
p2429
sg20
g21
sbag1
(g8
g3
NtRp2430
(dp2431
g11
g12
sg13
S'Lucida Console'
p2432
sg15
I400
sg16
g12
sg17
g12
sg18
VC:\u005cWindows\u005cFonts\u005clucon.ttf
p2433
sg20
g21
sbag1
(g8
g3
NtRp2434
(dp2435
g11
g12
sg13
S'Century'
p2436
sg15
I400
sg16
g12
sg17
g12
sg18
VC:\u005cWindows\u005cFonts\u005cCENTURY.TTF
p2437
sg20
g21
sbag1
(g8
g3
NtRp2438
(dp2439
g11
g12
sg13
S'Britannic Bold'
p2440
sg15
I700
sg16
g12
sg17
g12
sg18
VC:\u005cWindows\u005cFonts\u005cBRITANIC.TTF
p2441
sg20
g21
sbag1
(g8
g3
NtRp2442
(dp2443
g11
g12
sg13
S'Old English Text MT'
p2444
sg15
I400
sg16
g12
sg17
g12
sg18
VC:\u005cWindows\u005cFonts\u005cOLDENGL.TTF
p2445
sg20
g21
sbag1
(g8
g3
NtRp2446
(dp2447
g11
g12
sg13
S'Raavi'
p2448
sg15
I400
sg16
g12
sg17
g12
sg18
VC:\u005cWindows\u005cFonts\u005craavi.ttf
p2449
sg20
g21
sbag1
(g8
g3
NtRp2450
(dp2451
g11
g12
sg13
S'Vladimir Script'
p2452
sg15
I400
sg16
g12
sg17
g12
sg18
Vc:\u005cwindows\u005cfonts\u005cvladimir.ttf
p2453
sg20
g21
sbag1
(g8
g3
NtRp2454
(dp2455
g11
g12
sg13
S'Arial'
p2456
sg15
I700
sg16
g114
sg17
g12
sg18
VC:\u005cWindows\u005cFonts\u005cARIALNB.TTF
p2457
sg20
g21
sbag1
(g8
g3
NtRp2458
(dp2459
g11
g12
sg13
S'Gadugi'
p2460
sg15
I400
sg16
g12
sg17
g12
sg18
VC:\u005cWindows\u005cFonts\u005cGADUGI.TTF
p2461
sg20
g21
sbag1
(g8
g3
NtRp2462
(dp2463
g11
g12
sg13
S'Eras Bold ITC'
p2464
sg15
I700
sg16
g12
sg17
g12
sg18
Vc:\u005cwindows\u005cfonts\u005cerasbd.ttf
p2465
sg20
g21
sbag1
(g8
g3
NtRp2466
(dp2467
g11
g12
sg13
S'Bookshelf Symbol 7'
p2468
sg15
I400
sg16
g12
sg17
g12
sg18
Vc:\u005cwindows\u005cfonts\u005cbssym7.ttf
p2469
sg20
g21
sbag1
(g8
g3
NtRp2470
(dp2471
g11
g12
sg13
S'Leelawadee'
p2472
sg15
I700
sg16
g12
sg17
g12
sg18
VC:\u005cWindows\u005cFonts\u005cLEELAWDB.TTF
p2473
sg20
g21
sbag1
(g8
g3
NtRp2474
(dp2475
g11
g12
sg13
S'Plantagenet Cherokee'
p2476
sg15
I400
sg16
g12
sg17
g12
sg18
VC:\u005cWindows\u005cFonts\u005cplantc.ttf
p2477
sg20
g21
sbag1
(g8
g3
NtRp2478
(dp2479
g11
g12
sg13
S'Centaur'
p2480
sg15
I400
sg16
g12
sg17
g12
sg18
VC:\u005cWindows\u005cFonts\u005cCENTAUR.TTF
p2481
sg20
g21
sbag1
(g8
g3
NtRp2482
(dp2483
g11
g12
sg13
S'Iskoola Pota'
p2484
sg15
I700
sg16
g12
sg17
g12
sg18
VC:\u005cWindows\u005cFonts\u005ciskpotab.ttf
p2485
sg20
g21
sbag1
(g8
g3
NtRp2486
(dp2487
g11
g12
sg13
S'Candara'
p2488
sg15
I400
sg16
g12
sg17
g12
sg18
VC:\u005cWindows\u005cFonts\u005cCandara.ttf
p2489
sg20
g21
sbag1
(g8
g3
NtRp2490
(dp2491
g11
g28
sg13
S'Lucida Handwriting'
p2492
sg15
I400
sg16
g12
sg17
g12
sg18
Vc:\u005cwindows\u005cfonts\u005clhandw.ttf
p2493
sg20
g21
sbag1
(g8
g3
NtRp2494
(dp2495
g11
g12
sg13
S'Pristina'
p2496
sg15
I400
sg16
g12
sg17
g12
sg18
VC:\u005cWindows\u005cFonts\u005cPRISTINA.TTF
p2497
sg20
g21
sbag1
(g8
g3
NtRp2498
(dp2499
g11
g12
sg13
S'Rockwell Extra Bold'
p2500
sg15
I700
sg16
g12
sg17
g12
sg18
Vc:\u005cwindows\u005cfonts\u005crockeb.ttf
p2501
sg20
g21
sbag1
(g8
g3
NtRp2502
(dp2503
g11
g12
sg13
S'Qualcomm Office'
p2504
sg15
I700
sg16
g12
sg17
g12
sg18
VC:\u005cWindows\u005cFonts\u005cQualcommOffice-Bold.ttf
p2505
sg20
g21
sbag1
(g8
g3
NtRp2506
(dp2507
g11
g12
sg13
S'Playbill'
p2508
sg15
I400
sg16
g12
sg17
g12
sg18
Vc:\u005cwindows\u005cfonts\u005cplaybill.ttf
p2509
sg20
g21
sbag1
(g8
g3
NtRp2510
(dp2511
g11
g12
sg13
S'Lucida Sans Typewriter'
p2512
sg15
I700
sg16
g12
sg17
g12
sg18
Vc:\u005cwindows\u005cfonts\u005cltypeb.ttf
p2513
sg20
g21
sbag1
(g8
g3
NtRp2514
(dp2515
g11
g28
sg13
S'Century Gothic'
p2516
sg15
I700
sg16
g12
sg17
g12
sg18
VC:\u005cWindows\u005cFonts\u005cGOTHICBI.TTF
p2517
sg20
g21
sbag1
(g8
g3
NtRp2518
(dp2519
g11
g12
sg13
S'Bodoni MT'
p2520
sg15
I400
sg16
g12
sg17
g12
sg18
Vc:\u005cwindows\u005cfonts\u005cbod_r.ttf
p2521
sg20
g21
sbag1
(g8
g3
NtRp2522
(dp2523
g11
g12
sg13
S'Bodoni MT'
p2524
sg15
I400
sg16
g12
sg17
g12
sg18
Vc:\u005cwindows\u005cfonts\u005cbod_pstc.ttf
p2525
sg20
g21
sbag1
(g8
g3
NtRp2526
(dp2527
g11
g12
sg13
S'Freestyle Script'
p2528
sg15
I400
sg16
g12
sg17
g12
sg18
VC:\u005cWindows\u005cFonts\u005cFREESCPT.TTF
p2529
sg20
g21
sbag1
(g8
g3
NtRp2530
(dp2531
g11
g12
sg13
S'Latha'
p2532
sg15
I700
sg16
g12
sg17
g12
sg18
VC:\u005cWindows\u005cFonts\u005clathab.ttf
p2533
sg20
g21
sbag1
(g8
g3
NtRp2534
(dp2535
g11
g12
sg13
S'Gabriola'
p2536
sg15
I400
sg16
g12
sg17
g12
sg18
Vc:\u005cwindows\u005cfonts\u005cgabriola.ttf
p2537
sg20
g21
sbag1
(g8
g3
NtRp2538
(dp2539
g11
g28
sg13
S'Perpetua'
p2540
sg15
I700
sg16
g12
sg17
g12
sg18
Vc:\u005cwindows\u005cfonts\u005cperbi___.ttf
p2541
sg20
g21
sbag1
(g8
g3
NtRp2542
(dp2543
g11
g12
sg13
S'Blackadder ITC'
p2544
sg15
I900
sg16
g12
sg17
g12
sg18
VC:\u005cWindows\u005cFonts\u005cITCBLKAD.TTF
p2545
sg20
g21
sbag1
(g8
g3
NtRp2546
(dp2547
g11
g12
sg13
S'Perpetua Titling MT'
p2548
sg15
I700
sg16
g12
sg17
g12
sg18
VC:\u005cWindows\u005cFonts\u005cPERTIBD.TTF
p2549
sg20
g21
sbag1
(g8
g3
NtRp2550
(dp2551
g11
g12
sg13
S'Ravie'
p2552
sg15
I400
sg16
g12
sg17
g12
sg18
Vc:\u005cwindows\u005cfonts\u005cravie.ttf
p2553
sg20
g21
sbag1
(g8
g3
NtRp2554
(dp2555
g11
g12
sg13
S'Leelawadee'
p2556
sg15
I400
sg16
g12
sg17
g12
sg18
VC:\u005cWindows\u005cFonts\u005cLEELAWAD.TTF
p2557
sg20
g21
sbag1
(g8
g3
NtRp2558
(dp2559
g11
g12
sg13
S'Eras Demi ITC'
p2560
sg15
I600
sg16
g12
sg17
g12
sg18
Vc:\u005cwindows\u005cfonts\u005cerasdemi.ttf
p2561
sg20
g21
sbag1
(g8
g3
NtRp2562
(dp2563
g11
g28
sg13
S'Lucida Bright'
p2564
sg15
I700
sg16
g12
sg17
g12
sg18
VC:\u005cWindows\u005cFonts\u005cLBRITEDI.TTF
p2565
sg20
g21
sbag1
(g8
g3
NtRp2566
(dp2567
g11
g12
sg13
S'Script MT Bold'
p2568
sg15
I700
sg16
g12
sg17
g12
sg18
Vc:\u005cwindows\u005cfonts\u005cscriptbl.ttf
p2569
sg20
g21
sbag1
(g8
g3
NtRp2570
(dp2571
g11
g28
sg13
S'Century Gothic'
p2572
sg15
I400
sg16
g12
sg17
g12
sg18
VC:\u005cWindows\u005cFonts\u005cGOTHICI.TTF
p2573
sg20
g21
sbag1
(g8
g3
NtRp2574
(dp2575
g11
g12
sg13
S'Maiandra GD'
p2576
sg15
I400
sg16
g12
sg17
g12
sg18
VC:\u005cWindows\u005cFonts\u005cMAIAN.TTF
p2577
sg20
g21
sbag1
(g8
g3
NtRp2578
(dp2579
g11
g28
sg13
S'Calisto MT'
p2580
sg15
I700
sg16
g12
sg17
g12
sg18
Vc:\u005cwindows\u005cfonts\u005ccalistbi.ttf
p2581
sg20
g21
sbag1
(g8
g3
NtRp2582
(dp2583
g11
g12
sg13
S'Old English Text MT'
p2584
sg15
I400
sg16
g12
sg17
g12
sg18
Vc:\u005cwindows\u005cfonts\u005coldengl.ttf
p2585
sg20
g21
sbag1
(g8
g3
NtRp2586
(dp2587
g11
g12
sg13
S'Tw Cen MT Condensed'
p2588
sg15
I700
sg16
g114
sg17
g12
sg18
VC:\u005cWindows\u005cFonts\u005cTCCB____.TTF
p2589
sg20
g21
sbag1
(g8
g3
NtRp2590
(dp2591
g11
g28
sg13
S'Harlow Solid Italic'
p2592
sg15
I400
sg16
g12
sg17
g12
sg18
VC:\u005cWindows\u005cFonts\u005cHARLOWSI.TTF
p2593
sg20
g21
sbag1
(g8
g3
NtRp2594
(dp2595
g11
g12
sg13
S'Khmer UI'
p2596
sg15
I400
sg16
g12
sg17
g12
sg18
VC:\u005cWindows\u005cFonts\u005cKhmerUI.ttf
p2597
sg20
g21
sbag1
(g8
g3
NtRp2598
(dp2599
g11
g28
sg13
S'Bookman Old Style'
p2600
sg15
I700
sg16
g12
sg17
g12
sg18
VC:\u005cWindows\u005cFonts\u005cBOOKOSBI.TTF
p2601
sg20
g21
sbag1
(g8
g3
NtRp2602
(dp2603
g11
g12
sg13
S'Berlin Sans FB'
p2604
sg15
I700
sg16
g12
sg17
g12
sg18
Vc:\u005cwindows\u005cfonts\u005cbrlnsb.ttf
p2605
sg20
g21
sbag1
(g8
g3
NtRp2606
(dp2607
g11
g12
sg13
S'Bell MT'
p2608
sg15
I700
sg16
g12
sg17
g12
sg18
Vc:\u005cwindows\u005cfonts\u005cbellb.ttf
p2609
sg20
g21
sbag1
(g8
g3
NtRp2610
(dp2611
g11
g28
sg13
S'Lucida Calligraphy'
p2612
sg15
I400
sg16
g12
sg17
g12
sg18
VC:\u005cWindows\u005cFonts\u005cLCALLIG.TTF
p2613
sg20
g21
sbag1
(g8
g3
NtRp2614
(dp2615
g11
g28
sg13
S'Bodoni MT'
p2616
sg15
I400
sg16
g114
sg17
g12
sg18
VC:\u005cWindows\u005cFonts\u005cBOD_CI.TTF
p2617
sg20
g21
sbag1
(g8
g3
NtRp2618
(dp2619
g11
g12
sg13
S'Bodoni MT'
p2620
sg15
I400
sg16
g12
sg17
g12
sg18
VC:\u005cWindows\u005cFonts\u005cBOD_PSTC.TTF
p2621
sg20
g21
sbag1
(g8
g3
NtRp2622
(dp2623
g11
g12
sg13
S'Poor Richard'
p2624
sg15
I400
sg16
g12
sg17
g12
sg18
Vc:\u005cwindows\u005cfonts\u005cpoorich.ttf
p2625
sg20
g21
sbag1
(g8
g3
NtRp2626
(dp2627
g11
g12
sg13
S'Nirmala UI'
p2628
sg15
I700
sg16
g12
sg17
g12
sg18
Vc:\u005cwindows\u005cfonts\u005cnirmalab.ttf
p2629
sg20
g21
sbag1
(g8
g3
NtRp2630
(dp2631
g11
g28
sg13
S'Bodoni MT'
p2632
sg15
I700
sg16
g114
sg17
g12
sg18
Vc:\u005cwindows\u005cfonts\u005cbod_cbi.ttf
p2633
sg20
g21
sbag1
(g8
g3
NtRp2634
(dp2635
g11
g12
sg13
S'Candara'
p2636
sg15
I700
sg16
g12
sg17
g12
sg18
VC:\u005cWindows\u005cFonts\u005cCandarab.ttf
p2637
sg20
g21
sbag1
(g8
g3
NtRp2638
(dp2639
g11
g12
sg13
S'Broadway'
p2640
sg15
I400
sg16
g12
sg17
g12
sg18
Vc:\u005cwindows\u005cfonts\u005cbroadw.ttf
p2641
sg20
g21
sbag1
(g8
g3
NtRp2642
(dp2643
g11
g12
sg13
S'Stencil'
p2644
sg15
I400
sg16
g12
sg17
g12
sg18
Vc:\u005cwindows\u005cfonts\u005cstencil.ttf
p2645
sg20
g21
sbasS'defaultFamily'
p2646
(dp2647
Vafm
p2648
VHelvetica
p2649
sVttf
p2650
VBitstream Vera Sans
p2651
ssS'ttffiles'
p2652
(lp2653
g19
ag25
ag30
ag34
ag38
ag42
ag46
ag50
ag54
ag58
ag62
ag66
ag70
ag74
ag78
ag82
ag86
ag90
ag94
aVc:\u005cwindows\u005cfonts\u005ctaileb.ttf
p2654
ag98
ag102
ag106
ag110
ag115
ag119
ag123
ag127
ag131
ag135
ag139
ag143
ag147
ag151
ag155
ag159
ag163
ag167
ag171
ag175
ag179
ag183
ag187
ag191
ag195
ag199
ag203
ag207
ag211
ag215
ag219
ag223
ag227
ag232
ag236
aVc:\u005cwindows\u005cfonts\u005ctahomabd.ttf
p2655
ag240
aVc:\u005cwindows\u005cfonts\u005ckokilab.ttf
p2656
ag244
aVc:\u005cwindows\u005cfonts\u005cgautamib.ttf
p2657
ag248
ag252
ag256
ag260
ag264
ag268
ag272
ag276
ag280
aVc:\u005cwindows\u005cfonts\u005cverdanaz.ttf
p2658
ag284
ag288
ag292
ag296
ag300
ag304
ag308
ag312
ag316
ag320
ag324
ag328
ag332
ag336
ag340
ag344
ag348
ag352
ag356
ag360
ag364
ag368
ag372
ag376
ag380
ag384
ag388
ag392
ag396
ag400
ag404
ag408
ag412
ag416
ag420
ag424
ag428
ag432
ag436
ag440
ag444
ag448
ag452
ag456
aVc:\u005cwindows\u005cfonts\u005cvrindab.ttf
p2659
ag460
aVC:\u005cWindows\u005cFonts\u005ctrebucbi.ttf
p2660
ag464
ag468
ag472
ag476
ag480
ag484
ag488
ag492
ag496
ag500
ag504
ag508
ag512
ag516
ag520
ag524
ag528
ag532
ag536
ag540
ag544
aVC:\u005cWindows\u005cFonts\u005cmsjhbd.ttf
p2661
ag548
ag552
ag556
ag560
ag564
ag568
ag572
ag576
ag580
ag584
aVc:\u005cwindows\u005cfonts\u005csegoeui.ttf
p2662
ag588
ag592
ag596
ag600
ag604
ag608
ag612
ag616
ag620
ag624
ag628
ag632
ag636
ag640
ag644
aVc:\u005cwindows\u005cfonts\u005ctaile.ttf
p2663
ag648
ag652
ag656
aVC:\u005cWindows\u005cFonts\u005cbrowab.ttf
p2664
ag660
ag664
ag668
ag672
ag676
ag680
ag684
ag688
ag692
ag696
ag700
ag704
ag708
ag712
ag716
ag720
ag724
ag728
ag732
aVc:\u005cwindows\u005cfonts\u005cupckbi.ttf
p2665
ag736
ag740
ag744
ag748
ag752
ag756
ag760
ag764
ag768
ag772
ag776
ag780
ag784
ag788
ag792
ag796
ag800
ag804
ag808
ag812
ag816
ag820
ag824
ag828
aVC:\u005cWindows\u005cFonts\u005cverdanai.ttf
p2666
ag832
aVc:\u005cwindows\u005cfonts\u005csegoepr.ttf
p2667
aVc:\u005cwindows\u005cfonts\u005cmicross.ttf
p2668
ag836
ag840
ag844
aVC:\u005cWindows\u005cFonts\u005cutsaah.ttf
p2669
aVc:\u005cwindows\u005cfonts\u005ckalingab.ttf
p2670
ag848
ag852
ag856
ag860
ag864
ag868
ag872
ag876
ag880
ag884
ag888
ag892
ag896
ag900
ag904
aVc:\u005cwindows\u005cfonts\u005cl_10646.ttf
p2671
aVC:\u005cWindows\u005cFonts\u005cmriamc.ttf
p2672
ag908
aVC:\u005cWindows\u005cFonts\u005cseguisb.ttf
p2673
ag912
ag916
ag920
ag924
aVC:\u005cWindows\u005cFonts\u005cmoolbor.ttf
p2674
ag928
ag932
ag936
ag940
ag944
ag948
ag952
ag956
aVc:\u005cwindows\u005cfonts\u005ccordia.ttf
p2675
ag960
ag964
ag968
ag972
ag976
aVc:\u005cwindows\u005cfonts\u005ckokilai.ttf
p2676
ag980
ag984
ag988
ag992
ag996
ag1000
ag1004
ag1008
ag1012
ag1016
ag1020
ag1024
ag1028
ag1032
ag1036
ag1040
ag1044
aVc:\u005cwindows\u005cfonts\u005ccour.ttf
p2677
aVC:\u005cWindows\u005cFonts\u005clatha.ttf
p2678
ag1048
ag1052
ag1056
ag1060
ag1064
ag1068
ag1072
ag1076
ag1080
ag1084
ag1088
ag1092
ag1096
ag1100
ag1104
ag1108
ag1112
ag1116
ag1120
ag1124
ag1128
ag1132
ag1136
ag1140
ag1144
ag1148
ag1152
ag1156
aVC:\u005cWindows\u005cFonts\u005cupcdb.ttf
p2679
ag1160
aVC:\u005cWindows\u005cFonts\u005cconsola.ttf
p2680
ag1164
ag1168
ag1172
ag1176
ag1180
ag1184
ag1188
ag1192
ag1196
ag1200
ag1204
ag1208
ag1212
ag1216
ag1220
ag1224
ag1228
ag1232
ag1236
ag1240
aVC:\u005cWindows\u005cFonts\u005cdaunpenh.ttf
p2681
ag1244
ag1248
ag1252
aVc:\u005cwindows\u005cfonts\u005ckokilabi.ttf
p2682
ag1256
ag1260
ag1264
aVC:\u005cWindows\u005cFonts\u005cbrowauz.ttf
p2683
ag1268
ag1272
ag1276
ag1280
ag1284
ag1288
ag1292
ag1296
aVc:\u005cwindows\u005cfonts\u005ccourbd.ttf
p2684
ag1300
ag1304
ag1308
aVc:\u005cwindows\u005cfonts\u005cshrutib.ttf
p2685
ag1312
aVc:\u005cwindows\u005cfonts\u005cbrowaui.ttf
p2686
ag1316
ag1320
aVc:\u005cwindows\u005cfonts\u005cframdit.ttf
p2687
ag1324
ag1328
ag1332
ag1336
aVC:\u005cWindows\u005cFonts\u005cupcii.ttf
p2688
ag1340
ag1344
aVc:\u005cwindows\u005cfonts\u005cmangalb.ttf
p2689
ag1348
ag1352
ag1356
ag1360
ag1364
aVc:\u005cwindows\u005cfonts\u005cupcjbi.ttf
p2690
ag1368
ag1372
aVc:\u005cwindows\u005cfonts\u005cupclb.ttf
p2691
aVC:\u005cWindows\u005cFonts\u005cmsjh.ttf
p2692
ag1376
ag1380
ag1384
aVC:\u005cWindows\u005cFonts\u005carialbi.ttf
p2693
aVc:\u005cwindows\u005cfonts\u005cupcebi.ttf
p2694
ag1388
ag1392
ag1396
ag1400
ag1404
aVC:\u005cWindows\u005cFonts\u005ccambriai.ttf
p2695
ag1408
aVC:\u005cWindows\u005cFonts\u005cupcdbi.ttf
p2696
ag1412
aVc:\u005cwindows\u005cfonts\u005csegoesc.ttf
p2697
ag1416
ag1420
ag1424
ag1428
ag1432
ag1436
aVc:\u005cwindows\u005cfonts\u005cconstanb.ttf
p2698
ag1440
aVc:\u005cwindows\u005cfonts\u005cgautami.ttf
p2699
ag1444
ag1448
ag1452
ag1456
aVC:\u005cWindows\u005cFonts\u005cvijayab.ttf
p2700
ag1460
ag1464
aVc:\u005cwindows\u005cfonts\u005ccalibriz.ttf
p2701
ag1468
ag1472
ag1476
ag1480
ag1484
ag1488
aVC:\u005cWindows\u005cFonts\u005cangsauz.ttf
p2702
ag1492
aVC:\u005cWindows\u005cFonts\u005ctrebucbd.ttf
p2703
aVc:\u005cwindows\u005cfonts\u005cupcib.ttf
p2704
aVC:\u005cWindows\u005cFonts\u005ccouri.ttf
p2705
ag1496
aVC:\u005cWindows\u005cFonts\u005ccordiauz.ttf
p2706
aVc:\u005cwindows\u005cfonts\u005ccordiab.ttf
p2707
aVc:\u005cwindows\u005cfonts\u005ceuphemia.ttf
p2708
ag1500
aVc:\u005cwindows\u005cfonts\u005cangsab.ttf
p2709
ag1504
ag1508
aVc:\u005cwindows\u005cfonts\u005cconstanz.ttf
p2710
ag1512
aVC:\u005cWindows\u005cFonts\u005caparaj.ttf
p2711
ag1516
ag1520
aVC:\u005cWindows\u005cFonts\u005csylfaen.ttf
p2712
ag1524
ag1528
ag1532
ag1536
ag1540
ag1544
ag1548
ag1552
ag1556
aVC:\u005cWindows\u005cFonts\u005csimpbdo.ttf
p2713
ag1560
ag1564
aVC:\u005cWindows\u005cFonts\u005cmriam.ttf
p2714
ag1568
ag1572
aVC:\u005cWindows\u005cFonts\u005ccomicbd.ttf
p2715
ag1576
ag1580
aVC:\u005cWindows\u005cFonts\u005ciskpota.ttf
p2716
ag1584
ag1588
ag1592
ag1596
ag1600
ag1605
ag1609
aVc:\u005cwindows\u005cfonts\u005cmsyi.ttf
p2717
aVc:\u005cwindows\u005cfonts\u005cwingding.ttf
p2718
aVC:\u005cWindows\u005cFonts\u005csimkai.ttf
p2719
ag1613
aVC:\u005cWindows\u005cFonts\u005ctradbdo.ttf
p2720
aVC:\u005cWindows\u005cFonts\u005csimhei.ttf
p2721
aVC:\u005cWindows\u005cFonts\u005cbrowai.ttf
p2722
ag1617
ag1621
ag1625
aVC:\u005cWindows\u005cFonts\u005cupcji.ttf
p2723
ag1629
aVC:\u005cWindows\u005cFonts\u005carialbd.ttf
p2724
ag1633
ag1637
ag1641
ag1645
ag1649
ag1653
aVc:\u005cwindows\u005cfonts\u005cangsa.ttf
p2725
aVc:\u005cwindows\u005cfonts\u005ccalibril.ttf
p2726
ag1657
ag1661
aVC:\u005cWindows\u005cFonts\u005cupcel.ttf
p2727
ag1665
ag1669
ag1673
ag1677
aVC:\u005cWindows\u005cFonts\u005cupcil.ttf
p2728
ag1681
ag1685
ag1689
ag1693
ag1697
ag1701
ag1705
ag1709
ag1713
ag1717
ag1721
ag1725
ag1729
aVc:\u005cwindows\u005cfonts\u005cupcjl.ttf
p2729
ag1733
ag1737
ag1741
ag1745
ag1749
aVC:\u005cWindows\u005cFonts\u005cutsaahb.ttf
p2730
ag1753
aVc:\u005cwindows\u005cfonts\u005caparajb.ttf
p2731
aVC:\u005cWindows\u005cFonts\u005cdavidbd.ttf
p2732
aVc:\u005cwindows\u005cfonts\u005cariblk.ttf
p2733
ag1757
ag1761
ag1765
ag1769
ag1773
aVc:\u005cwindows\u005cfonts\u005craavib.ttf
p2734
ag1777
ag1781
ag1785
ag1789
ag1793
ag1797
aVC:\u005cWindows\u005cFonts\u005ctrebuc.ttf
p2735
ag1801
ag1805
aVC:\u005cWindows\u005cFonts\u005cconsolab.ttf
p2736
ag1809
ag1813
ag1817
ag1821
ag1825
aVc:\u005cwindows\u005cfonts\u005cupcll.ttf
p2737
ag1829
ag1833
ag1837
aVc:\u005cwindows\u005cfonts\u005ccorbeli.ttf
p2738
ag1841
ag1845
ag1849
ag1853
ag1857
aVc:\u005cwindows\u005cfonts\u005chimalaya.ttf
p2739
aVc:\u005cwindows\u005cfonts\u005ccalibrii.ttf
p2740
aVc:\u005cwindows\u005cfonts\u005ctimesi.ttf
p2741
aVc:\u005cwindows\u005cfonts\u005cupcfl.ttf
p2742
ag1861
ag1865
ag1869
aVC:\u005cWindows\u005cFonts\u005ccourbi.ttf
p2743
aVC:\u005cWindows\u005cFonts\u005ccorbelb.ttf
p2744
ag1873
ag1877
aVc:\u005cwindows\u005cfonts\u005cupcfb.ttf
p2745
aVC:\u005cWindows\u005cFonts\u005cpalai.ttf
p2746
ag1881
ag1885
ag1889
ag1893
ag1897
ag1901
ag1905
ag1909
ag1913
ag1917
ag1921
ag1925
ag1929
ag1933
ag1937
aVC:\u005cWindows\u005cFonts\u005cnyala.ttf
p2747
ag1941
ag1945
aVc:\u005cwindows\u005cfonts\u005cmalgunbd.ttf
p2748
aVc:\u005cwindows\u005cfonts\u005cnrkis.ttf
p2749
ag1949
ag1953
ag1957
aVc:\u005cwindows\u005cfonts\u005cntailu.ttf
p2750
aVc:\u005cwindows\u005cfonts\u005ckartikab.ttf
p2751
aVc:\u005cwindows\u005cfonts\u005cdavid.ttf
p2752
aVC:\u005cWindows\u005cFonts\u005ccalibrili.ttf
p2753
ag1961
ag1965
ag1969
aVC:\u005cWindows\u005cFonts\u005cbrowau.ttf
p2754
ag1973
ag1977
aVc:\u005cwindows\u005cfonts\u005cupcfbi.ttf
p2755
ag1981
aVc:\u005cwindows\u005cfonts\u005cgeorgiaz.ttf
p2756
ag1985
ag1989
aVc:\u005cwindows\u005cfonts\u005cwebdings.ttf
p2757
aVC:\u005cWindows\u005cFonts\u005cupclbi.ttf
p2758
ag1993
aVC:\u005cWindows\u005cFonts\u005csegoeuiz.ttf
p2759
ag1997
ag2001
ag2005
aVc:\u005cwindows\u005cfonts\u005cconsolai.ttf
p2760
ag2009
ag2013
ag2017
ag2021
aVc:\u005cwindows\u005cfonts\u005cgeorgia.ttf
p2761
ag2025
ag2029
ag2033
aVc:\u005cwindows\u005cfonts\u005csegoeuii.ttf
p2762
ag2037
ag2041
aVc:\u005cwindows\u005cfonts\u005cupcli.ttf
p2763
aVc:\u005cwindows\u005cfonts\u005cmonbaiti.ttf
p2764
ag2045
aVc:\u005cwindows\u005cfonts\u005ckaiu.ttf
p2765
ag2049
ag2053
aVc:\u005cwindows\u005cfonts\u005ccorbel.ttf
p2766
ag2057
ag2061
ag2065
aVc:\u005cwindows\u005cfonts\u005ckokila.ttf
p2767
aVC:\u005cWindows\u005cFonts\u005cutsaahi.ttf
p2768
ag2069
ag2073
ag2077
aVc:\u005cwindows\u005cfonts\u005cmajallab.ttf
p2769
ag2081
ag2085
aVC:\u005cWindows\u005cFonts\u005csymbol.ttf
p2770
ag2089
aVC:\u005cWindows\u005cFonts\u005cbrowaub.ttf
p2771
aVC:\u005cWindows\u005cFonts\u005caparaji.ttf
p2772
ag2093
ag2097
ag2101
ag2105
ag2109
ag2113
aVC:\u005cWindows\u005cFonts\u005cpalab.ttf
p2773
aVC:\u005cWindows\u005cFonts\u005cgisha.ttf
p2774
aVC:\u005cWindows\u005cFonts\u005cmsyh.ttf
p2775
aVC:\u005cWindows\u005cFonts\u005carial.ttf
p2776
aVc:\u005cwindows\u005cfonts\u005ccorbelz.ttf
p2777
ag2117
ag2121
ag2125
ag2129
aVc:\u005cwindows\u005cfonts\u005ccomic.ttf
p2778
aVC:\u005cWindows\u005cFonts\u005cfrank.ttf
p2779
aVc:\u005cwindows\u005cfonts\u005csegoeprb.ttf
p2780
aVC:\u005cWindows\u005cFonts\u005csimsunb.ttf
p2781
ag2133
ag2137
ag2141
ag2145
aVC:\u005cWindows\u005cFonts\u005cahronbd.ttf
p2782
aVC:\u005cWindows\u005cFonts\u005cverdanab.ttf
p2783
ag2149
aVc:\u005cwindows\u005cfonts\u005ctahoma.ttf
p2784
ag2153
aVc:\u005cwindows\u005cfonts\u005ckalinga.ttf
p2785
ag2157
aVC:\u005cWindows\u005cFonts\u005csimpo.ttf
p2786
ag2161
aVc:\u005cwindows\u005cfonts\u005candlso.ttf
p2787
ag2165
aVc:\u005cwindows\u005cfonts\u005ccalibrib.ttf
p2788
aVc:\u005cwindows\u005cfonts\u005cframd.ttf
p2789
ag2169
ag2173
ag2177
aVc:\u005cwindows\u005cfonts\u005cupcdi.ttf
p2790
aVC:\u005cWindows\u005cFonts\u005cupcjb.ttf
p2791
ag2181
ag2185
ag2189
ag2193
aVc:\u005cwindows\u005cfonts\u005ccordiai.ttf
p2792
ag2197
ag2201
ag2205
aVC:\u005cWindows\u005cFonts\u005cupceb.ttf
p2793
ag2209
aVc:\u005cwindows\u005cfonts\u005cimpact.ttf
p2794
aVc:\u005cwindows\u005cfonts\u005cmalgun.ttf
p2795
ag2213
ag2217
ag2221
ag2225
ag2229
aVC:\u005cWindows\u005cFonts\u005ccambriab.ttf
p2796
ag2233
ag2237
aVC:\u005cWindows\u005cFonts\u005cmsyhbd.ttf
p2797
ag2241
aVc:\u005cwindows\u005cfonts\u005cgeorgiai.ttf
p2798
ag2245
ag2249
ag2253
ag2257
ag2261
aVc:\u005cwindows\u005cfonts\u005cestre.ttf
p2799
ag2265
ag2269
ag2273
ag2277
ag2281
ag2285
aVc:\u005cwindows\u005cfonts\u005ccordiaz.ttf
p2800
aVC:\u005cWindows\u005cFonts\u005cariali.ttf
p2801
ag2289
ag2293
ag2297
ag2301
ag2305
ag2309
ag2313
aVC:\u005cWindows\u005cFonts\u005cebrimabd.ttf
p2802
ag2317
ag2321
ag2325
aVc:\u005cwindows\u005cfonts\u005ccambriaz.ttf
p2803
aVC:\u005cWindows\u005cFonts\u005cbrowaz.ttf
p2804
ag2329
aVc:\u005cwindows\u005cfonts\u005cangsau.ttf
p2805
ag2333
ag2337
ag2341
ag2345
aVC:\u005cWindows\u005cFonts\u005cupckb.ttf
p2806
aVC:\u005cWindows\u005cFonts\u005csimfang.ttf
p2807
ag2349
aVc:\u005cwindows\u005cfonts\u005cangsaub.ttf
p2808
ag2353
aVC:\u005cWindows\u005cFonts\u005cconstan.ttf
p2809
aVC:\u005cWindows\u005cFonts\u005cmangal.ttf
p2810
aVC:\u005cWindows\u005cFonts\u005csimpfxo.ttf
p2811
ag2357
ag2361
ag2365
ag2369
aVC:\u005cWindows\u005cFonts\u005cpala.ttf
p2812
ag2373
aVc:\u005cwindows\u005cfonts\u005csegoeuib.ttf
p2813
ag2377
ag2381
ag2385
aVc:\u005cwindows\u005cfonts\u005csegoeuil.ttf
p2814
aVC:\u005cWindows\u005cFonts\u005cupcfi.ttf
p2815
ag2389
ag2393
ag2397
ag2401
aVC:\u005cWindows\u005cFonts\u005crod.ttf
p2816
ag2405
ag2409
ag2413
aVC:\u005cWindows\u005cFonts\u005ctrebucit.ttf
p2817
aVc:\u005cwindows\u005cfonts\u005ctungab.ttf
p2818
ag2417
ag2421
aVc:\u005cwindows\u005cfonts\u005cebrima.ttf
p2819
ag2425
ag2429
ag2433
ag2437
ag2441
aVC:\u005cWindows\u005cFonts\u005cvijaya.ttf
p2820
aVc:\u005cwindows\u005cfonts\u005ctrado.ttf
p2821
ag2445
aVc:\u005cwindows\u005cfonts\u005cangsai.ttf
p2822
ag2449
aVC:\u005cWindows\u005cFonts\u005carabtype.ttf
p2823
ag2453
ag2457
aVc:\u005cwindows\u005cfonts\u005cmajalla.ttf
p2824
ag2461
ag2465
aVc:\u005cwindows\u005cfonts\u005craavi.ttf
p2825
ag2469
aVc:\u005cwindows\u005cfonts\u005ctunga.ttf
p2826
ag2473
aVC:\u005cWindows\u005cFonts\u005ctimesbi.ttf
p2827
aVc:\u005cwindows\u005cfonts\u005cupcibi.ttf
p2828
aVC:\u005cWindows\u005cFonts\u005csegoescb.ttf
p2829
ag2477
aVc:\u005cwindows\u005cfonts\u005cvrinda.ttf
p2830
ag2481
ag2485
aVc:\u005cwindows\u005cfonts\u005cverdana.ttf
p2831
aVC:\u005cWindows\u005cFonts\u005ctimesbd.ttf
p2832
ag2489
aVc:\u005cwindows\u005cfonts\u005clvnm.ttf
p2833
aVC:\u005cWindows\u005cFonts\u005ccalibri.ttf
p2834
ag2493
ag2497
ag2501
aVC:\u005cWindows\u005cFonts\u005ccordiaub.ttf
p2835
aVc:\u005cwindows\u005cfonts\u005cupcki.ttf
p2836
ag2505
ag2509
ag2513
aVC:\u005cWindows\u005cFonts\u005cupckl.ttf
p2837
ag2517
aVC:\u005cWindows\u005cFonts\u005cangsaz.ttf
p2838
ag2521
aVc:\u005cwindows\u005cfonts\u005cplantc.ttf
p2839
ag2525
aVC:\u005cWindows\u005cFonts\u005cseguisym.ttf
p2840
aVc:\u005cwindows\u005cfonts\u005cconstani.ttf
p2841
aVC:\u005cWindows\u005cFonts\u005ctimes.ttf
p2842
aVc:\u005cwindows\u005cfonts\u005cshruti.ttf
p2843
aVc:\u005cwindows\u005cfonts\u005cntailub.ttf
p2844
ag2529
ag2533
ag2537
aVC:\u005cWindows\u005cFonts\u005cupcdl.ttf
p2845
aVC:\u005cWindows\u005cFonts\u005caparajbi.ttf
p2846
ag2541
aVc:\u005cwindows\u005cfonts\u005cpalabi.ttf
p2847
aVC:\u005cWindows\u005cFonts\u005ccordiaui.ttf
p2848
aVC:\u005cWindows\u005cFonts\u005cphagspa.ttf
p2849
aVc:\u005cwindows\u005cfonts\u005clucon.ttf
p2850
ag2545
ag2549
ag2553
aVc:\u005cwindows\u005cfonts\u005cbrowa.ttf
p2851
aVC:\u005cWindows\u005cFonts\u005cconsolaz.ttf
p2852
ag2557
aVC:\u005cWindows\u005cFonts\u005cupcei.ttf
p2853
ag2561
ag2565
aVc:\u005cwindows\u005cfonts\u005clathab.ttf
p2854
aVc:\u005cwindows\u005cfonts\u005cutsaahbi.ttf
p2855
ag2569
ag2573
ag2577
ag2581
ag2585
ag2589
aVc:\u005cwindows\u005cfonts\u005cmvboli.ttf
p2856
aVC:\u005cWindows\u005cFonts\u005ccordiau.ttf
p2857
ag2593
aVC:\u005cWindows\u005cFonts\u005cangsaui.ttf
p2858
aVc:\u005cwindows\u005cfonts\u005clvnmbd.ttf
p2859
ag2597
ag2601
aVc:\u005cwindows\u005cfonts\u005ciskpotab.ttf
p2860
ag2605
ag2609
ag2613
ag2617
aVc:\u005cwindows\u005cfonts\u005ckartika.ttf
p2861
aVc:\u005cwindows\u005cfonts\u005cdokchamp.ttf
p2862
ag2621
aVc:\u005cwindows\u005cfonts\u005cphagspab.ttf
p2863
aVC:\u005cWindows\u005cFonts\u005cgeorgiab.ttf
p2864
ag2625
ag2629
aVc:\u005cwindows\u005cfonts\u005cgishabd.ttf
p2865
ag2633
ag2637
ag2641
ag2645
asS'_FontManager__default_weight'
p2866
Vnormal
p2867
sS'_version'
p2868
I101
sS'default_size'
p2869
NsS'defaultFont'
p2870
(dp2871
g2648
Nsg2650
g19
ssS'afmfiles'
p2872
(lp2873
sS'afmlist'
p2874
(lp2875
sb.